  Sat Apr  4 2026 16:30                                                                                                    Page 1


                                               ***************************************
                                               **      WDC 65C02 Macro Assembler    **
                                               **                                   **
                                               **     Version 3.49.1- Feb  6 2006    **
                                               ***************************************

     1                        ;**************************************************************************************************
     2                        ;*    C02BIOS 5.1 - Release version for Pocket SBC  (c)2013-2025 by Kevin E. Maier 04/04/2026     *
     3                        ;*                                                                                                *
     4                        ;* BIOS Version 5.1 supports the following 3.3V hardware specification:                           *
     5                        ;*                                                                                                *
     6                        ;*  - W65C02S with clock rate up to 8.0 MHz                                                       *
     7                        ;*  - AS6C1008 128KB Static RAM mapped to 60KB or 62KB                                            *
     8                        ;*  - SST39LF-010 128KB Flash ROM mapped to 2KB or 4KB                                            *
     9                        ;*  - ATF1504ASV Single Glue Logic                                                                *
    10                        ;*  - NXP SC28L92 DUART for Console Port / Aux Serial Port / Timer                                *
    11                        ;*  - MicroDrive IDE PATA interface with 16-bit data port                                         *
    12                        ;*  - DS1318 Realtime Clock - 32-bit binary Epoch time                                            *
    13                        ;*  - TL7533 Reset Circuit (positive & negative Reset signals)                                    *
    14                        ;*  - TL7533 Reset Circuit (positive & negative NMI/Panic signals)                                *
    15                        ;*                                                                                                *
    16                        ;* Hardware map is flexible via Glue logic                                                        *
    17                        ;*  - SC28L92 DUART mapped to $FE00 - $FE0F (16 bytes)                                            *
    18                        ;*  - $FE10 - $FE1F is currently unmapped                                                         *
    19                        ;*  - DS1318 RTC mapped to $FE20 - $FE1F (16 bytes)                                               *
    20                        ;*  - IDE Controller and 16-bit data port mapped to $FE30 - $FE3F (16 bytes)                      *
    21                        ;*                                                                                                *
    22                        ;* BIOS Functions are divided into groups as follows:                                             *
    23                        ;*                                                                                                *
    24                        ;* SC28L92 DUART functions:                                                                       *
    25                        ;* - Full duplex interrupt-driven/buffered I/O for both DUART Channels                            *
    26                        ;* - Precision timer services with 10ms accuracy                                                  *
    27                        ;* - RTC based Jiffy Clock, 32-bit count of seconds (EPOCH time)                                  *
    28                        ;* - Accurate delays from 10ms to ~46 hours                                                       *
    29                        ;* - 10ms Benchmark Timing to 65535.99 seconds                                                    *
    30                        ;*                                                                                                *
    31                        ;* IDE Controller Functions supporting PATA 16-bit Data Transfers:                                *
    32                        ;* - Uses Logical Block Addressing (LBA) Mode only                                                *
    33                        ;* - Multiple Block transfers are supported for Read/Write Block commands                         *
    34                        ;* - Reset IDE (recalibrate command)                                                              *
    35                        ;* - Get IDE Status and Extended Error codes                                                      *
    36                        ;* - Get IDE Identification Block                                                                 *
    37                        ;* - Read a Block from IDE device                                                                 *
    38                        ;* - Write a Block to IDE device                                                                  *
    39                        ;* - Set the LBA Block ID for Read/Write                                                          *
    40                        ;* - Set the Memory Address to transfer Block data to/from                                        *
    41                        ;* - Enable/Disable the Write Cache on IDE controller                                             *
    42                        ;*                                                                                                *
    43                        ;* Maxim DS1318 Realtime Clock functions:                                                         *
    44                        ;* - Detect RTC and Load software RTC variables                                                   *
    45                        ;*                                                                                                *
    46                        ;* BIOS Features:                                                                                 *
    47                        ;* - Extendable BIOS structure with soft vectors                                                  *
    48                        ;* - Soft config parameters for I/O devices                                                       *
    49                        ;* - Monitor cold/warm start soft vectored now optional                                           *
    50                        ;* - Panic Routine to restore Vectors and Reinitialize Console only                               *
    51                        ;* - Bootable default from IDE controller LBA 0                                                   *
    52                        ;* - Fully relocatable code (sans page $FF)                                                       *
    53                        ;* - JUMP Table at $FF00 - 32 functions                                                           *
    54                        ;* - Default memory allocation of 2KB (includes 64 bytes of I/O mapping)                          *
    55                        ;**************************************************************************************************
    56                                PL      66      ;Page Length
    57                                PW      132     ;Page Width (# of char/line)
  Sat Apr  4 2026 16:30                                                                                                    Page 2


    58                                CHIP    W65C02S ;Enable WDC 65C02 instructions
    59                                PASS1   OFF     ;Set ON when used for debug
    60                                INCLIST ON      ;Set ON for listing Include files
    61                        ;**************************************************************************************************
    62                        ;C02BIOS Version 5.x is "loosely" based on C02BIOS Version 4.02.
    63                        ;
    64                        ; - Main changes are to support minimal ROM usage and add IDE Boot capability.
    65                        ; - Include Bencharking routines into BIOS.
    66                        ; - Provide DOS/65 Boot and usage without C02 Monitor code.
    67                        ; - Provide an additional 6KB of RAM space for DOS/65 TEA (removal of C02Monitor).
    68                        ; - Remove IDE LBA Verify routine (not used for DOS/65).
    69                        ; - Remove RTC NVRAM block read/write (DS1318 has no such NVRAM - replaces DS15x1).
    70                        ; - Add support for DS1318 RTC as 32-bit EPOCH time in 1-second increments.
    71                        ;
    72                        ; - Changes to Page Zero to condense usage for IDE Bootable BIOS (includes DOS/65 usage).
    73                        ; - Restructure BIOS Jump table for new hardware config (calls are different from 4.x releases).
    74                        ;
    75                        ;**************************************************************************************************
    76                        ;This BIOS uses a single source file for constants and variables.
    77                        ;
    78                                INCLUDE         C02Constants5.asm
     1                        ;**************************************************************************************************
     2                        ;*                                                                                                *
     3                        ;*              C02 Constants used for the 5.1 release of C02BIOS5 / C02Monitor5                  *
     4                        ;*                                                                                                *
     5                        ;*                                                                                                *
     6                        ;*                                  04/04/2026 (Day/Month/Year)                                   *
     7                        ;*                                                                                                *
     8                        ;**************************************************************************************************
     9                        ;                                                                                                 *
    10                        ; C02BIOS Version is now at 5.1                                                                   *
    11                        ; C02Monitor Version is now at 5.1                                                                *
    12                        ; - All Constants and Variables are now defined in a single source file (this one)                *
    13                        ;                                                                                                 *
    14                        ; - Be sure to include this file at the start of any source file that needs it.                   *
    15                        ;                                                                                                 *
    16                        ;**************************************************************************************************
    17                        ;                                                                                                 *
    18                        ;          - Page Zero locations $00 to $BF (192 bytes) reserved for user applications            *
    19                        ;                                                                                                 *
    20                        ;**************************************************************************************************
    21                        ;
    22             000000A0   PGZERO_ST       .EQU    $A0                     ;Start of Monitor Page 0 use ($A0-$CF, 48 bytes)
    23                        ;
    24             000000A0   BUFF_PG0        .EQU    PGZERO_ST+00            ;Default Page zero location for Monitor buffers
    25                        ;
    26             000000A0   INBUFF          .EQU    BUFF_PG0+00             ;Input Buffer - 4 bytes ($A0-$A3)
    27                        ;
    28                        ;       - 16-bit variables:
    29             000000A4   HEXDATAH        .EQU    PGZERO_ST+04            ;Hexadecimal input
    30             000000A5   HEXDATAL        .EQU    PGZERO_ST+05
    31             000000A6   COMLO           .EQU    PGZERO_ST+06            ;User command address
    32             000000A7   COMHI           .EQU    PGZERO_ST+07
    33             000000A8   INDEXL          .EQU    PGZERO_ST+08            ;Index for address - multiple routines
    34             000000A9   INDEXH          .EQU    PGZERO_ST+09
    35             000000AA   TEMP1L          .EQU    PGZERO_ST+10            ;Index for word temp value used by Memdump
    36             000000AB   TEMP1H          .EQU    PGZERO_ST+11
    37             000000AC   SRCL            .EQU    PGZERO_ST+12            ;Source address for memory operations
    38             000000AD   SRCH            .EQU    PGZERO_ST+13
    39             000000AE   TGTL            .EQU    PGZERO_ST+14            ;Target address for memory operations
    40             000000AF   TGTH            .EQU    PGZERO_ST+15
    41             000000B0   LENL            .EQU    PGZERO_ST+16            ;Length address for memory operations
    42             000000B1   LENH            .EQU    PGZERO_ST+17
  Sat Apr  4 2026 16:30                                                                                                    Page 3


    43                        ;
    44                        ;       - 8-bit variables and constants:
    45             000000B2   BUFIDX          .EQU    PGZERO_ST+18            ;Buffer index
    46             000000B3   BUFLEN          .EQU    PGZERO_ST+19            ;Buffer length
    47             000000B4   IDX             .EQU    PGZERO_ST+20            ;Temp Indexing
    48             000000B5   IDY             .EQU    PGZERO_ST+21            ;Temp Indexing
    49             000000B6   TEMP1           .EQU    PGZERO_ST+22            ;Temp - Code Conversion routines
    50             000000B7   TEMP2           .EQU    PGZERO_ST+23            ;Temp - Memory/SREC routines
    51             000000B8   CMDFLAG         .EQU    PGZERO_ST+24            ;Command Flag, bit specific, used by many routines
    52                        ;
    53                        ;       - Xmodem transfer variables
    54             000000B9   OPXMDM          .EQU    PGZERO_ST+25            ;Xmodem Flag variable
    55             000000BA   CRCHI           .EQU    PGZERO_ST+26            ;CRC hi byte  (two byte variable)
    56             000000BB   CRCLO           .EQU    PGZERO_ST+27            ;CRC lo byte - Operand in Disassembler
    57             000000BC   CRCCNT          .EQU    PGZERO_ST+28            ;CRC retry count - Operand in Disassembler
    58             000000BD   PTRL            .EQU    PGZERO_ST+29            ;Data pointer lo byte - Mnemonic in Disassembler
    59             000000BE   PTRH            .EQU    PGZERO_ST+30            ;Data pointer hi byte - Mnemonic in Disassembler
    60             000000BF   BLKNO           .EQU    PGZERO_ST+31            ;Block number
    61                        ;
    62             000000C0   BIOS_PG0        .EQU    $C0                     ;Start of BIOS Page 0 usage (64 bytes)
    63                        ;
    64                        ; Reserve 8 bytes of Page Zero for DOS/65 usage ($C0 - $C7).
    65                        ;
    66                        ;       - BIOS variables, pointers, flags located at top of Page Zero
    67                        ;
    68             000000C8   DATABUFF        .EQU    BIOS_PG0+08             ;Data Buffer - 6 bytes ($C8-$CD)
    69                        ;
    70             000000CE   BINVALL         .EQU    BIOS_PG0+14             ;Binary Value for HEX2ASC
    71             000000CF   BINVALH         .EQU    BIOS_PG0+15
    72                        ;
    73             000000D0   STRINGL         .EQU    BIOS_PG0+16             ;Pointer for sending a text string low
    74             000000D1   STRINGH         .EQU    BIOS_PG0+17
    75                        ;
    76                        ;       - BRK handler routine
    77             000000D2   PCL             .EQU    BIOS_PG0+18             ;Program Counter Low index
    78             000000D3   PCH             .EQU    BIOS_PG0+19             ;Program Counter High index
    79             000000D4   PREG            .EQU    BIOS_PG0+20             ;Temp Status Reg
    80             000000D5   SREG            .EQU    BIOS_PG0+21             ;Temp Stack ptr
    81             000000D6   YREG            .EQU    BIOS_PG0+22             ;Temp Y Reg
    82             000000D7   XREG            .EQU    BIOS_PG0+23             ;Temp X Reg
    83             000000D8   AREG            .EQU    BIOS_PG0+24             ;Temp A Reg
    84                        ;
    85                        ;       - 28L92 IRQ handler pointers and status
    86             000000D9   ICNT_A          .EQU    BIOS_PG0+25             ;Input buffer count
    87             000000DA   IHEAD_A         .EQU    BIOS_PG0+26             ;Input buffer head pointer
    88             000000DB   ITAIL_A         .EQU    BIOS_PG0+27             ;Input buffer tail pointer
    89             000000DC   OCNT_A          .EQU    BIOS_PG0+28             ;Output buffer count
    90             000000DD   OHEAD_A         .EQU    BIOS_PG0+29             ;Output buffer head pointer
    91             000000DE   OTAIL_A         .EQU    BIOS_PG0+30             ;Output buffer tail pointer
    92                        ;
    93             000000DF   ICNT_B          .EQU    BIOS_PG0+31             ;Input buffer count
    94             000000E0   IHEAD_B         .EQU    BIOS_PG0+32             ;Input buffer head pointer
    95             000000E1   ITAIL_B         .EQU    BIOS_PG0+33             ;Input buffer tail pointer
    96             000000E2   OCNT_B          .EQU    BIOS_PG0+34             ;Output buffer count
    97             000000E3   OHEAD_B         .EQU    BIOS_PG0+35             ;Output buffer head pointer
    98             000000E4   OTAIL_B         .EQU    BIOS_PG0+36             ;Output buffer tail pointer
    99                        ;
   100             000000E5   UART_IRT        .EQU    BIOS_PG0+37             ;SC28L92 Interrupt Status byte
   101                        ;
   102                        ;       -RTC DS1318 Values:
   103                        ; These are the values used for the alternate RTC chip, which is simply a 32-bit interval counter
   104                        ; which is loaded with EPOCH time and incremented each second as a 32-bit integer.
   105                        ; This frees up 3 locations in Page Zero.
  Sat Apr  4 2026 16:30                                                                                                    Page 4


   106                        ;
   107             000000E6   TICKS           .EQU    BIOS_PG0+38             ;Number of timer countdowns = 1 second (100)
   108             000000E7   SECS_0          .EQU    BIOS_PG0+39             ;Seconds: bits 0-7
   109             000000E8   SECS_1          .EQU    BIOS_PG0+40             ;Seconds: bits 8-15
   110             000000E9   SECS_2          .EQU    BIOS_PG0+41             ;Seconds: bits 16-23
   111             000000EA   SECS_3          .EQU    BIOS_PG0+42             ;Seconds: bits 24-31
   112                        ;
   113                        ;       - Delay Timer variables
   114             000000EB   MSDELAY         .EQU    BIOS_PG0+43             ;Timer delay countdown byte (255 > 0)
   115             000000EC   SETMS           .EQU    BIOS_PG0+44             ;Set timeout for delay routines - BIOS use only
   116             000000ED   DELLO           .EQU    BIOS_PG0+45             ;Delay value BIOS use only
   117             000000EE   DELHI           .EQU    BIOS_PG0+46             ;Delay value BIOS use only
   118                        ;
   119                        ;       - Count variables for 10ms benchmark timing
   120             000000EF   MS10_CNT        .EQU    BIOS_PG0+47             ;10ms Count variable
   121             000000F0   SECL_CNT        .EQU    BIOS_PG0+48             ;Seconds Low byte count
   122             000000F1   SECH_CNT        .EQU    BIOS_PG0+49             ;Seconds High byte count
   123                        ;
   124                        ;       - Address and pointers for IDE Interface
   125             000000F2   LBA_ADDR_LOW    .EQU    BIOS_PG0+50             ;LBA Transfer Address low byte
   126             000000F3   LBA_ADDR_HIGH   .EQU    BIOS_PG0+51             ;LBA Transfer Address high byte
   127                        ;
   128             000000F4   LBA_XFER_CNT    .EQU    BIOS_PG0+52             ;LBA Transfer Count 1-xx (check RAM space!)
   129                        ;
   130             000000F5   LBA_LOW_BYTE    .EQU    BIOS_PG0+53             ;LBA Block number bits 0-7
   131             000000F6   LBA_HIGH_BYTE   .EQU    BIOS_PG0+54             ;LBA Block number bits 8-15
   132             000000F7   LBA_EXT_BYTE    .EQU    BIOS_PG0+55             ;LBA Block number bits 16-23
   133                        ;
   134             000000F8   BIOS_XFERL      .EQU    BIOS_PG0+56             ;BIOS Move Routine low byte
   135             000000F9   BIOS_XFERH      .EQU    BIOS_PG0+57             ;BIOS Move Routine high byte
   136             000000FA   BIOS_XFERC      .EQU    BIOS_PG0+58             ;BIOS Block Count moved (needs to be set)
   137                        ;
   138             000000FB   IDE_STATUS_RAM  .EQU    BIOS_PG0+59             ;IDE RAM-Based Status
   139                        ;
   140             000000FC   B_SPARE0        .EQU    BIOS_PG0+60             ;Spare BIOS byte page zero
   141             000000FD   B_SPARE1        .EQU    BIOS_PG0+61             ;Spare BIOS byte page zero
   142             000000FE   B_SPARE2        .EQU    BIOS_PG0+62             ;Spare BIOS byte page zero
   143                        ;
   144                        ;       - Timer/Counter Match flag for Delay/Benchmark and hardware support
   145             000000FF   MATCH           .EQU    BIOS_PG0+63             ;Bit 7 used for Delay
   146                                                                        ;Bit 6 used for Benchmark
   147                                                                        ;Bit 5 used to show IDE drive present
   148                                                                        ;Bit 4 used to show RTC chip present
   149                                                                        ;Bits 3,2 used for IDE Interrupt Handler
   150                                                                        ;Bits 1,0 reserved for future use
   151                        ;
   152                        ;**************************************************************************************************
   153                        ;
   154                        ; Default for RTC tick count - number of IRQs for 1 second
   155             00000064   DF_TICKS        .EQU    100                     ;Timer is 10 milliseconds (100 x 10ms = 1 second)
   156                        ;
   157                        ;**************************************************************************************************
   158                        ;
   159             00000200   SOFTVEC         .EQU    $0200                   ;Start of soft vectors
   160                        ;The Interrupt structure is vector based. During startup, Page $02 is loaded from ROM.
   161                        ; The soft vectors are structured to allow inserting additional routines either before
   162                        ; or after the ROM based routines. This allows flexibility and changing of routine priority.
   163                        ;
   164                        ;The main set of vectors occupy the first 16 bytes of Page $02. The ROM handler for
   165                        ; NMI, BRK and IRQ jump to the first 3 vectors. The following 3 vectors are loaded with
   166                        ; return addresses to the ROM handler for each. The following 2 vectors are the cold and
   167                        ; warm entry points for the Monitor. After the basic initialization, the monitor is entered.
   168                        ;
  Sat Apr  4 2026 16:30                                                                                                    Page 5


   169                        ;The following vector set allows inserts, pre or post for NMI/BRK/IRQ. There a total of 8 inserts
   170                        ; which occupy 16 bytes. They can be used as required.
   171                        ; Currently, VECINSRT0 will be used if an IDE Controller is detected.
   172                        ;
   173             00000200   NMIVEC0         .EQU    SOFTVEC+00              ;NMI Vector Entry 0
   174             00000202   BRKVEC0         .EQU    SOFTVEC+02              ;BRK Vector Entry 0
   175             00000204   IRQVEC0         .EQU    SOFTVEC+04              ;IRQ Vector Entry 0
   176                        ;
   177             00000206   NMIRTVEC0       .EQU    SOFTVEC+06              ;NMI Vector Return 0
   178             00000208   BRKRTVEC0       .EQU    SOFTVEC+08              ;BRK Vector Return 0
   179             0000020A   IRQRTVEC0       .EQU    SOFTVEC+10              ;IRQ Vector Return 0
   180                        ;
   181             0000020C   CLDMNVEC0       .EQU    SOFTVEC+12              ;Monitor Cold Entry Vector 0
   182             0000020E   WRMMNVEC0       .EQU    SOFTVEC+14              ;Monitor Warm Entry Vector 0
   183                        ;
   184             00000210   VECINSRT0       .EQU    SOFTVEC+16              ;1st Vector Insert
   185             00000212   VECINSRT1       .EQU    SOFTVEC+18              ;2nd Vector Insert
   186             00000214   VECINSRT2       .EQU    SOFTVEC+20              ;3rd Vector Insert
   187             00000216   VECINSRT3       .EQU    SOFTVEC+22              ;4th Vector Insert
   188             00000218   VECINSRT4       .EQU    SOFTVEC+24              ;5th Vector Insert
   189             0000021A   VECINSRT5       .EQU    SOFTVEC+26              ;6th Vector Insert
   190             0000021C   VECINSRT6       .EQU    SOFTVEC+28              ;7th Vector Insert
   191             0000021E   VECINSRT7       .EQU    SOFTVEC+30              ;8th Vector Insert
   192                        ;
   193                        ;**************************************************************************************************
   194                        ;
   195                        ;Soft Config values below are loaded from ROM and are the default I/O setup Configuration data that
   196                        ; the INIT_x routines use. As a result, you can write a routine to change the I/O Configuration
   197                        ; data and use the standard ROM routines to initialize the I/O without restarting or changing ROM
   198                        ; A Reset (HW or coded) will reinitialize the I/O with the ROM default I/O Configuration.
   199                        ;
   200                        ;There are a total of 32 Bytes Configuration data reserved starting at $0220,
   201                        ; - 22 bytes are reserved for the NXP SC28L92 DUART.
   202                        ;
   203             00000220   SOFTCFG         .EQU    SOFTVEC+32              ;Start of hardware Config parameters
   204                        ;
   205             00000220   LOAD_28L92      .EQU    SOFTCFG+00              ;SC28L92 Soft Config Data
   206                        ;
   207                        ; The configuration for the DUART consists of 14 parameters/commands stored in the following
   208                        ; - memory locations. Note that these are sent in reverse, i.e., $22E thru $220.
   209                        ;
   210                        ;       $220    .DB     %00000011       $03     ;Enable OP0/1 for RTS control Port A/B
   211                        ;       $221    .DB     %00001010       $A0     ;Disable Receiver/Disable Transmitter B
   212                        ;       $222    .DB     %00001001       $09     ;Enable Receiver/Disable Transmitter A
   213                        ;       $223    .DB     %00001111       $0F     ;Interrupt Mask Register setup
   214                        ;       $224    .DB     %11100000       $E0     ;Aux Register setup for Counter/Timer
   215                        ;       $225    .DB     %01001000       $48     ;Counter/Timer Upper Preset (18432 decimal)
   216                        ;       $226    .DB     %00000000       $00     ;Counter/Timer Lower Preset
   217                        ;       $227    .DB     %11001100       $CC     ;Baud Rate clock for B Rcv/Xmt - 115.2K
   218                        ;       $228    .DB     %11001100       $CC     ;Baud Rate clock for A Rcv/Xmt - 115.2K
   219                        ;       $229    .DB     %00110000       $30     ;Reset Transmitter B
   220                        ;       $22A    .DB     %00100000       $20     ;Reset Receiver B
   221                        ;       $22B    .DB     %00110000       $30     ;Reset Transmitter A
   222                        ;       $22C    .DB     %00100000       $20     ;Reset Receiver A
   223                        ;       $22D    .DB     %00000000       $00     ;Interrupt Mask Register setup (clear)
   224                        ;       $22E    .DB     %11110000       $F0     ;Command Register A - Disable Power Down
   225                        ;       $22F    .DB     %11111111       $FF     ;Spare Byte
   226                        ;
   227                        ; The MR registers of the DUART also have soft config data loaded here, but is separate from the
   228                        ; - main register config data, as these are all accessed via a single I/O port (auto-indexed).
   229                        ; - These are also sent in reverse order as above.
   230                        ;
   231                        ;       $230    .DB     %00010111       $17     ;Mode Register 2 data
  Sat Apr  4 2026 16:30                                                                                                    Page 6


   232                        ;       $231    .DB     %11010011       $D3     ;Mode Register 1 Data
   233                        ;       $232    .DB     %11111001       $F9     ;Mode Register 0 Data
   234                        ;
   235                        ;       $233    .DB     %00010111       $17     ;Mode Register 2 data
   236                        ;       $234    .DB     %11010011       $D3     ;Mode Register 1 Data
   237                        ;       $235    .DB     %11000001       $C1     ;Mode Register 0 Data
   238                        ;
   239                        ;       10 additional bytes are reserved for additional soft configuration data.
   240                        ;
   241                        ; The Microdrive is initialized and the total LBA count is saved here during startup.
   242                        ;  It is used by various utilities and allows drive capacity sensing without sending additional
   243                        ;  commands to the Microdrive. A total of 4 bytes are used for a 32-bit LBA count. These are saved
   244                        ;  at addresses $23C - $23F. Order is low-word/high-word. Each word is low-byte/high-byte.
   245                        ; Note: these 4 bytes are allocated from the 10 additional bytes noted above.
   246                        ;
   247             0000023C   LOAD_IDE        .EQU    SOFTCFG+28              ;IDE/CF-Card Soft Config Data
   248                        ;
   249                        ;       $23C    .DW                             ;Low order LBA count
   250                        ;       $23E    .DW                             ;High order LBA count
   251                        ;
   252                        ;Search Buffer is 16 bytes in length. Used to hold search string for text or hex data
   253                        ;
   254             00000240   SRCHBUFF        .EQU    SOFTCFG+32              ;Located in Page $02 following Hardware Config data
   255                        ;       $240                                    ;Start of search buffer (16 bytes)
   256                        ;
   257                        ;Xmodem/CRC Loader also provides Motorola S19 Record sense and load. Designed to handle the S19
   258                        ; records from the WDC Assembler/Linker package. This requires a 44 byte buffer to parse each valid
   259                        ; S1 record, located just before the 132 Byte Xmodem frame buffer. Total Buffer space for the
   260                        ; Xmodem/CRC Loader is 176 bytes
   261                        ;
   262                        ;Valid S-record headers are "S1" and "S9". For S1, the maximum length is "$19" hex. The last S1
   263                        ; record can be less. S9 record is always the last record with no data. WDC Linker also appends
   264                        ; a CR/LF to the end of each record for a total of 44 bytes.
   265                        ;
   266             00000250   SRBUFF          .EQU    SOFTCFG+48              ;S-Record buffer, up to 44 bytes in length
   267                        ;       $250                                    ;Start of S-Record buffer
   268                        ;
   269                        ;Xmodem frame buffer. The entire Xmodem frame is buffered here and then checked for proper header
   270                        ; and frame number, CRC-16 on the data, then moved to user RAM.
   271                        ;
   272             0000027C   RBUFF           .EQU    SOFTCFG+92              ;Xmodem temp 132 byte receive buffer
   273                        ;       $27C                                    ;Start of Receive buffer for Xmodem
   274                        ;
   275                        ;Page $02 is completely allocated for Buffers, Config Data and Vector pointers.
   276                        ; Some of the buffer space can be used as needed, provided any required Monitor functions are NOT
   277                        ; being used concurrently.
   278                        ;
   279                        ;**************************************************************************************************
   280                        ;
   281             00000300   IBUF_A          .EQU    $0300                   ;Console Input Buffer - 128 bytes
   282             00000380   OBUF_A          .EQU    $0380                   ;Console Output Buffer - 128 bytes
   283                        ;
   284             00000400   IBUF_B          .EQU    $0400                   ;Alternate Input Buffer - 128 bytes
   285             00000480   OBUF_B          .EQU    $0480                   ;Alternate Output Buffer - 128 bytes
   286                        ;
   287                        ;**************************************************************************************************
   288                        ;
   289                        ;Page $05 is reserved for future hardware / software expansion
   290                        ;
   291                        ;**************************************************************************************************
   292                        ;
   293                        ;Pages $06 - $07 are used for the IDE device Block Buffer (512 bytes)
   294             00000600   LBA_BUFFER      .EQU    $0600                   ;Default IDE Block Buffer address
  Sat Apr  4 2026 16:30                                                                                                    Page 7


   295                        ;
   296                        ;Pages $07 - $08 are used for the IDE device Boot Buffer (512 bytes)
   297             00000800   BOOT_BUFFER     .EQU    $0800                   ;Default IDE Boot Buffer address
   298                        ;
   299                        ;**************************************************************************************************
   300                        ;XMODEM Control Character Constants
   301             00000001   SOH             .EQU    $01                     ;Start of Block Header
   302             00000004   EOT             .EQU    $04                     ;End of Text marker
   303             00000006   ACK             .EQU    $06                     ;Good Block Acknowledge
   304             00000015   NAK             .EQU    $15                     ;Bad Block Acknowledged
   305             00000018   CAN             .EQU    $18                     ;Cancel character
   306                        ;
   307                        ;**************************************************************************************************
   308                        ;
   309                        ;**************************************************************************************************
   310                        ;
   311                        ;DOS/65 can be called from the Monitor via the Ctrl-B command. - Temporary!
   312                        ;The start location is just added here for convenience, but should be changed if needed.
   313                        ;
   314             0000D400   DOS_65          .EQU    $D400                   ;Default SIM location to Boot DOS/65 (optional)
   315                        ;
   316                        ;**************************************************************************************************
   317                        ;
   318             0000FE00   IOPAGE          .EQU    $FE00                   ;I/O Page Base Start Address
   319                        ;
   320                        ;**************************************************************************************************
   321                        ;
   322             0000FE00   SC28L92_BASE    .EQU    IOPAGE+$00              ;Beginning of Console UART address
   323                        ;
   324             0000FE00   UART_MODEREG_A  .EQU    SC28L92_BASE+$00        ;MR0/MR1/MR2 Port A sequential (READ/WRITE)
   325             0000FE01   UART_STATUS_A   .EQU    SC28L92_BASE+$01        ;UART Status Register Port A (READ)
   326             0000FE01   UART_CLKSEL_A   .EQU    SC28L92_BASE+$01        ;UART Clock Select Port A (WRITE)
   327             0000FE02   UART_RESERVE_A  .EQU    SC28L92_BASE+$02        ;UART Reserved Port A (READ)
   328             0000FE02   UART_COMMAND_A  .EQU    SC28L92_BASE+$02        ;UART Command Register Port A (WRITE)
   329             0000FE03   UART_RECEIVE_A  .EQU    SC28L92_BASE+$03        ;UART Receive Register Port A (READ)
   330             0000FE03   UART_TRANSMIT_A .EQU    SC28L92_BASE+$03        ;UART Transmit Register Port A (WRITE)
   331                        ;
   332             0000FE04   UART_PORT_CHG   .EQU    SC28L92_BASE+$04        ;UART Input Port Change Register (READ)
   333             0000FE04   UART_AUXCR      .EQU    SC28L92_BASE+$04        ;UART Aux Command Register (WRITE)
   334             0000FE05   UART_ISR        .EQU    SC28L92_BASE+$05        ;UART Interrupt Status Register (READ)
   335             0000FE05   UART_IMR        .EQU    SC28L92_BASE+$05        ;UART Interrupt Mask Register (WRITE)
   336                        ;
   337             0000FE06   UART_CNTU       .EQU    SC28L92_BASE+$06        ;Counter/Timer Upper Register (READ)
   338             0000FE06   UART_CNTUP      .EQU    SC28L92_BASE+$06        ;Counter/Timer Upper Preset Register (WRITE)
   339             0000FE07   UART_CNTL       .EQU    SC28L92_BASE+$07        ;Counter/Timer Lower Register (READ)
   340             0000FE07   UART_CNTLP      .EQU    SC28L92_BASE+$07        ;Counter/Timer Lower Preset Register (WRITE)
   341                        ;
   342             0000FE08   UART_MODEREG_B  .EQU    SC28L92_BASE+$08        ;MR0/MR1/MR2 Port B sequential (READ/WRITE)
   343             0000FE09   UART_STATUS_B   .EQU    SC28L92_BASE+$09        ;UART Status Register Port B (READ)
   344             0000FE09   UART_CLKSEL_B   .EQU    SC28L92_BASE+$09        ;UART Clock Select Port B (WRITE)
   345             0000FE0A   UART_RESERVE_B  .EQU    SC28L92_BASE+$0A        ;UART Reserved Port B (READ)
   346             0000FE0A   UART_COMMAND_B  .EQU    SC28L92_BASE+$0A        ;UART Command Register Port B (WRITE)
   347             0000FE0B   UART_RECEIVE_B  .EQU    SC28L92_BASE+$0B        ;UART Receive Register Port B (READ)
   348             0000FE0B   UART_TRANSMIT_B .EQU    SC28L92_BASE+$0B        ;UART Transmit Register Port B (WRITE)
   349                        ;
   350             0000FE0C   UART_MISC       .EQU    SC28L92_BASE+$0C        ;UART Miscellaneous Register Intel (READ/WRITE)
   351             0000FE0D   UART_INPUT_PORT .EQU    SC28L92_BASE+$0D        ;UART Input Port Register (READ)
   352             0000FE0D   UART_OUT_CFG    .EQU    SC28L92_BASE+$0D        ;UART Ouput Port Config Register (WRITE)
   353             0000FE0E   UART_START_CNT  .EQU    SC28L92_BASE+$0E        ;UART Start Counter Command (READ)
   354             0000FE0E   UART_SOPR_CMD   .EQU    SC28L92_BASE+$0E        ;UART Set Output Port Bits Register (WRITE)
   355             0000FE0F   UART_STOP_CNT   .EQU    SC28L92_BASE+$0F        ;UART Stop Counter Command (READ)
   356             0000FE0F   UART_ROPR_CMD   .EQU    SC28L92_BASE+$0F        ;UART Reset Output Port Bits Register (WRITE)
   357                        ;
  Sat Apr  4 2026 16:30                                                                                                    Page 8


   358                        ;Additional Hardware - DS-1318 RTC
   359                        ; Replacement for DS15x1 RTC
   360                        ; - this RTC uses a simple 32-bit counter implemented as 4 bytes
   361                        ; - this will be setup with EPOCH time as a 32-bit count.
   362                        ; - this greatly simplifies the BIOS routines to support.
   363                        ; - the setup will be done by a separate utility application
   364                        ; - reading the RTC and showing as Day/Month/Year will be done via a loadable application
   365                        ;
   366             0000FE20   RTC_BASE        .EQU    IOPAGE+$20              ;Start of RTC Regsters
   367                        ;
   368             0000FE20   RTC_SUB_SEC_0   .EQU    RTC_BASE+0              ;Sub-Seconds 0
   369             0000FE21   RTC_SUB_SEC_1   .EQU    RTC_BASE+1              ;Sub-Seconds 1
   370                        ;
   371             0000FE22   RTC_SECONDS_0   .EQU    RTC_BASE+2              ;Clock Seconds 0
   372             0000FE23   RTC_SECONDS_1   .EQU    RTC_BASE+3              ;Clock Seconds 1
   373             0000FE24   RTC_SECONDS_2   .EQU    RTC_BASE+4              ;Clock Seconds 2
   374             0000FE25   RTC_SECONDS_3   .EQU    RTC_BASE+5              ;Clock Seconds 3
   375                        ;
   376             0000FE26   RTC_ALARM_0     .EQU    RTC_BASE+6              ;Alarm Seconds 0
   377             0000FE27   RTC_ALARM_1     .EQU    RTC_BASE+7              ;Alarm Seconds 1
   378             0000FE28   RTC_ALARM_2     .EQU    RTC_BASE+8              ;Alarm Seconds 2
   379             0000FE29   RTC_ALARM_3     .EQU    RTC_BASE+9              ;Alarm Seconds 3
   380                        ;
   381             0000FE2A   RTC_CONTROL_A   .EQU    RTC_BASE+10             ;Control Register A
   382             0000FE2B   RTC_CONTROL_B   .EQU    RTC_BASE+11             ;Control Register B
   383                        ;
   384             0000FE2C   RTC_STATUS      .EQU    RTC_BASE+12             ;Status Register
   385                        ;
   386                        ; Adding BIOS definitions for 16-bit IDE interface
   387                        ; uses two addresses for Upper Byte Latch read / write
   388                        ; uses eight addresses for Command Block Registers
   389                        ; uses two addresses for Control Block Registers
   390                        ;
   391             0000FE20   RTC_IDE_BASE    .EQU    IOPAGE+$20              ;
   392                        ;
   393             0000FE34   IDE_16_READ     .EQU    RTC_IDE_BASE+$14        ;Upper byte Read address
   394             0000FE35   IDE_16_WRITE    .EQU    RTC_IDE_BASE+$15        ;Upper byte Write address
   395                        ;
   396                        ; Adding BIOS definitions for IDE Controller (HARD DISK, Flash Module, etc.)
   397                        ; Hardware Adapter provides a 16-bit IDE Port per:
   398                        ;  Seagate ATA Interface Reference Manual 36111-001, Rev. C (21st May 1993)
   399                        ;
   400                        ; Control Block Registers
   401             0000FE36   IDE_ALT_STATUS  .EQU    RTC_IDE_BASE+$16        ;Alternate Status Register (READ)
   402             0000FE36   IDE_DEV_CTRL    .EQU    RTC_IDE_BASE+$16        ;Device Control Register (WRITE)
   403             0000FE37   IDE_DRV_ADDR    .EQU    RTC_IDE_BASE+$17        ;Drive Address Register (READ)
   404                        ;
   405                        ; Command Block Registers
   406             0000FE38   IDE_DATA        .EQU    RTC_IDE_BASE+$18        ;Data Register (R/W)
   407             0000FE39   IDE_ERROR       .EQU    RTC_IDE_BASE+$19        ;Error Register (READ)
   408             0000FE39   IDE_FEATURE     .EQU    RTC_IDE_BASE+$19        ;Feature Register (WRITE)
   409             0000FE3A   IDE_SCT_CNT     .EQU    RTC_IDE_BASE+$1A        ;Sector Count Register
   410             0000FE3B   IDE_SCT_NUM     .EQU    RTC_IDE_BASE+$1B        ;Sector Number Register
   411             0000FE3C   IDE_CYL_LOW     .EQU    RTC_IDE_BASE+$1C        ;Cylinder Low Register
   412             0000FE3D   IDE_CYL_HIGH    .EQU    RTC_IDE_BASE+$1D        ;Cylinder High Register
   413             0000FE3E   IDE_DRV_HEAD    .EQU    RTC_IDE_BASE+$1E        ;Drive/Head Register
   414             0000FE3F   IDE_STATUS      .EQU    RTC_IDE_BASE+$1F        ;Status Register (READ)
   415             0000FE3F   IDE_COMMAND     .EQU    RTC_IDE_BASE+$1F        ;Command Register (WRITE)
   416                        ;
   417                        ;**************************************************************************************************
   418                        ;
   419                                .END
    79                        ;
  Sat Apr  4 2026 16:30                                                                                                    Page 9


    80                        ;**************************************************************************************************
    81                        ;Monitor JUMP table: 32 JUMP calls are Defined, only two shown here are required.
    82                        ; Note: Monitor entry points are currently for debugging purposes.
    83                        ; - once the BIOS and Bootable hardware and software is completed, these will be changed.
    84                        ;
    85             0000F000   M_COLD_MON      .EQU    $F000           ;Call 00        Monitor Cold Start
    86             0000F003   M_WARM_MON      .EQU    $F003           ;Call 01        Monitor Warm Start
    87                        ;
    88                        ;**************************************************************************************************
    89                                .ORG    $F800   ;2KB reserved for BIOS, I/O device selects (48 bytes)                     *
    90                        ;**************************************************************************************************
    91                        ;                                    START OF BIOS CODE                                           *
    92                        ;**************************************************************************************************
    93                        ;C02BIOS version used here is 5.1 (new release with IDE bootable support)
    94                        ;
    95                        ; Contains the base BIOS routines in top 2KB of Flash ROM
    96                        ; - $F800 - $FDFF Core BIOS routines (1536 bytes)
    97                        ; - $FE00 - $FE3F reserved for hardware devices (64 bytes)
    98                        ; - $FE40 - $FEFF used for Vector and Hardware configuration and text data (192 bytes)
    99                        ; - $FF00 - $FFFF JMP table, startup, NMI/BRK/IRQ pre-post routines, init, BIOS msg (256 bytes)
   100                        ;
   101                        ; UPDATES:
   102                        ; NOTE: Version 5.x BIOS changes include:
   103                        ; - Vector and Config Data moved to Page $02
   104                        ; - Console I/O buffer moved to Page $03
   105                        ; - Second Serial port buffer moved to Page $04
   106                        ; - Page $05 reserved for future expansion/changes
   107                        ; - Disk LBA buffer is at Pages $06 - $07
   108                        ;
   109                        ; - Update to Version 5.1
   110                        ; - Changes to the IDE BIOS to perform a Software Reset for the Reset_IDE call.
   111                        ; - Changes to the Cold Start to provide a timeout to either Boot from the IDE device or jump to
   112                        ; - the Monitor Cold Start vector.
   113                        ;**************************************************************************************************
   114                        ; The following 32 functions are provided by BIOS via the JMP Table
   115                        ;
   116                        ; $FF00 IDE_RESET       ;Reset IDE Controller (Recalibrate Command)
   117                        ; $FF03 IDE_GET_STAT    ;Get Status and Error code
   118                        ; $FF06 IDE_IDENTIFY    ;Load IDE Identity Data to LBA Buffer
   119                        ; $FF09 IDE_READ_LBA    ;Read LBA into memory
   120                        ; $FF0C IDE_WRITE_LBA   ;Write LBA from memory
   121                        ; $FF0F IDE_SET_LBA     ;Set LBA number (24-bit support only)
   122                        ; $FF12 IDE_SET_ADDR    ;Set LBA transfer address (16-bit plus block count)
   123                        ; $FF15 IDE_EN_CACHE    ;Enable/Disable IDE Write Cache
   124                        ;
   125                        ; $FF18 CHR_STAT        ;Check Console Status
   126                        ; $FF1B CHRIN_NW        ;Data input from console (no waiting, clear carry if none)
   127                        ; $FF1E CHRIN           ;Data input from console
   128                        ; $FF21 CHROUT          ;Data output to console
   129                        ;
   130                        ; $FF24 CHRIN2          ;Data input from aux port
   131                        ; $FF27 CHROUT2         ;Data output to aux port
   132                        ;
   133                        ; $FF2A CNT_INIT        ;Reset Benchmark timing counters
   134                        ; $FF2D CNT_STRT        ;Start 10ms Benchmark timing counter
   135                        ; $FF30 CNT_STOP        ;Stop 10ms Benchmark timing counter
   136                        ; $FF33 CNT_DISP        ;Display Benchmark counter timing
   137                        ;
   138                        ; $FF36 SET_DLY         ;Set delay value for milliseconds and 16-bit counter
   139                        ; $FF39 EXE_MSDLY       ;Execute millisecond delay 1-256 * 10 milliseconds
   140                        ; $FF3C EXE_LGDLY       ;Execute long delay; millisecond delay * 16-bit count
   141                        ;
   142                        ; $FF3F PROMPTR         ;Print string to console
  Sat Apr  4 2026 16:30                                                                                                    Page 10


   143                        ;
   144                        ; $FF42 RTC_INIT        ;Initialize software RTC from DS1318 hardware RTC
   145                        ;
   146                        ; $FF45 PRSTAT          ;Display CPU registers to console
   147                        ;
   148                        ; $FF48 Reserved        ;Reserved for future expansion
   149                        ;
   150                        ; $FF4B INIT_VEC        ;Initialize soft vectors at $0200 from ROM
   151                        ; $FF4E INIT_CFG        ;Initialize soft config data at $0220 from ROM
   152                        ;
   153                        ; $FF51 INIT_28L92      ;Initialize SC28L92 - Port A as console at 115.2K, 8-N-1 RTS/CTS
   154                        ; $FF54 RESET_28L92     ;Reset SC28L92 - called before INIT_28L92
   155                        ;
   156                        ; $FF57 PANIC           ;Execute PANIC routine (disables IDE controller)
   157                        ; $FF5A BOOT_IDE        ;Boot IDE device - load LBA 0 to $0800 and jump to it
   158                        ;
   159                        ; $FF5D COLDSTRT        ;System cold start - RESET vector for W65C02S
   160                        ;**************************************************************************************************
   161                        ;                    Data In and Out routines for Console I/O buffer                              *
   162                        ;**************************************************************************************************
   163                        ;Data Input Port A routine:
   164                        ;
   165                        ; CHR_STAT checks to see if the input buffer has any characters and returns with the buffer count
   166                        ; in the A Reg. Any value from $00 - $7F is valid.
   167                        ;
   168                        ; CHRIN_NW uses CHRIN, returns if data is not available from the buffer with carry flag clear,
   169                        ; - else returns with data in A reg and carry flag set.
   170                        ;
   171                        ; CHRIN waits for data to be in the receive buffer, then returns with data in A reg.
   172                        ; Receive is IRQ driven/buffered with a size of 128 bytes.
   173                        ;
   174 00:F800: A5 D9        CHR_STAT        LDA     ICNT_A          ;Get Buffer Count (4)
   175 00:F802: 60                           RTS                     ;Return to caller (6)
   176                        ;
   177 00:F803: 18           CHRIN_NW        CLC                     ;Clear Carry flag for no data (2)
   178 00:F804: A5 D9                        LDA     ICNT_A          ;Get buffer count (4)
   179 00:F806: D0 05                        BNE     GET_CH          ;Branch if buffer is not empty (2/3)
   180 00:F808: 60                           RTS                     ;Or return to caller (6)
   181                        ;
   182 00:F809: A5 D9        CHRIN           LDA     ICNT_A          ;Get data count (3)
   183 00:F80B: F0 FC                        BEQ     CHRIN           ;If zero (no data, loop back) (2/3)
   184                        ;
   185 00:F80D: 5A           GET_CH          PHY                     ;Save Y Reg (3)
   186 00:F80E: A4 DA                        LDY     IHEAD_A         ;Get the buffer head pointer (3)
   187 00:F810: B9 00 03                     LDA     IBUF_A,Y        ;Get the data from the buffer (4)
   188 00:F813: E6 DA                        INC     IHEAD_A         ;Increment head pointer (5)
   189 00:F815: 77 DA                        RMB7    IHEAD_A         ;Strip off bit 7, 128 bytes only (5)
   190 00:F817: C6 D9                        DEC     ICNT_A          ;Decrement the buffer count (5)
   191                        ;
   192 00:F819: 7A                           PLY                     ;Restore Y Reg (4)
   193 00:F81A: 38                           SEC                     ;Set Carry flag for data available (2)
   194 00:F81B: 60                           RTS                     ;Return to caller with data in A Reg (6)
   195                        ;
   196                        ;Data Output Port A routine:
   197                        ; CHROUT puts the data in the A Reg into the xmit buffer, data in A Reg is preserved on exit.
   198                        ; Transmit is IRQ driven/buffered with a size of 128 bytes.
   199                        ;
   200 00:F81C: 5A           CHROUT          PHY                     ;Save Y Reg (3)
   201 00:F81D: A4 DC        OUTCH           LDY     OCNT_A          ;Get data output count in buffer (3)
   202 00:F81F: 30 FC                        BMI     OUTCH           ;Check against limit, loop back if full (2/3)
   203                        ;
   204 00:F821: A4 DE                        LDY     OTAIL_A         ;Get the buffer tail pointer (3)
   205 00:F823: 99 80 03                     STA     OBUF_A,Y        ;Place data in the buffer (5)
  Sat Apr  4 2026 16:30                                                                                                    Page 11


   206 00:F826: E6 DE                        INC     OTAIL_A         ;Increment Tail pointer (5)
   207 00:F828: 77 DE                        RMB7    OTAIL_A         ;Strip off bit 7, 128 bytes only (5)
   208 00:F82A: E6 DC                        INC     OCNT_A          ;Increment data count (5)
   209                        ;
   210 00:F82C: A0 04                        LDY     #%00000100      ;Get mask for xmit on (2)
   211 00:F82E: 8C 02 FE                     STY     UART_COMMAND_A  ;Turn on xmit (4)
   212                        ;
   213 00:F831: 7A                           PLY                     ;Restore Y Reg (4)
   214 00:F832: 60                           RTS                     ;Return to caller (6)
   215                        ;
   216                        ;Data Input Port B routine:
   217                        ; CHRIN2 waits for data to be in the receive buffer, then returns with data in A reg.
   218                        ; Receive is IRQ driven/buffered with a size of 128 bytes.
   219                        ;
   220 00:F833: A5 DF        CHRIN2          LDA     ICNT_B          ;Get data count (3)
   221 00:F835: F0 FC                        BEQ     CHRIN2          ;If zero (no data, loop back) (2/3)
   222                        ;
   223 00:F837: 5A                           PHY                     ;Save Y Reg (3)
   224 00:F838: A4 DA                        LDY     IHEAD_A         ;Get the buffer head pointer (3)
   225 00:F83A: B9 00 04                     LDA     IBUF_B,Y        ;Get the data from the buffer (4)
   226 00:F83D: E6 E0                        INC     IHEAD_B         ;Increment head pointer (5)
   227 00:F83F: 77 E0                        RMB7    IHEAD_B         ;Strip off bit 7, 128 bytes only (5)
   228 00:F841: C6 DF                        DEC     ICNT_B          ;Decrement the buffer count (5)
   229                        ;
   230 00:F843: 7A                           PLY                     ;Restore Y Reg (4)
   231 00:F844: 60                           RTS                     ;Return to caller with data in A Reg (6)
   232                        ;
   233                        ;Data Output Port B routine:
   234                        ; CHROUT2 puts the data in the A Reg into the xmit buffer, data in A Reg is preserved on exit.
   235                        ; Transmit is IRQ driven/buffered with a size of 128 bytes.
   236                        ;
   237 00:F845: 5A           CHROUT2         PHY                     ;Save Y Reg (3)
   238 00:F846: A4 E2        OUTCH2          LDY     OCNT_B          ;Get data output count in buffer (3)
   239 00:F848: 30 FC                        BMI     OUTCH2          ;Check against limit, loop back if full (2/3)
   240                        ;
   241 00:F84A: A4 E4                        LDY     OTAIL_B         ;Get the buffer tail pointer (3)
   242 00:F84C: 99 80 04                     STA     OBUF_B,Y        ;Place data in the buffer (5)
   243 00:F84F: E6 E4                        INC     OTAIL_B         ;Increment Tail pointer (5)
   244 00:F851: 77 E4                        RMB7    OTAIL_B         ;Strip off bit 7, 128 bytes only (5)
   245 00:F853: E6 E2                        INC     OCNT_B          ;Increment data count (5)
   246                        ;
   247 00:F855: A0 04                        LDY     #%00000100      ;Get mask for xmit on (2)
   248 00:F857: 8C 0A FE                     STY     UART_COMMAND_B  ;Turn on xmit (4)
   249                        ;
   250 00:F85A: 7A                           PLY                     ;Restore Y Reg (4)
   251 00:F85B: 60                           RTS                     ;Return to caller (6)
   252                        ;
   253                        ;**************************************************************************************************
   254                        ;START of IDE Data Transfer Routines for Hitachi 3K8 MicroDrive
   255                        ; These routines requires loading the requested LBA into the appropriate registers and
   256                        ; issuing the READ or WRITE command. The LBA limit supported for the BIOS are bits 0-23,
   257                        ; so bits 24-27 are always set to 0. This provides access to IDE devices up to 8GB.
   258                        ;
   259                        ; Once the registers/parameters are setup, the Read or Write Block command is issued.
   260                        ; This results in an interrupt being generated. The ISR handles the transfer of LBA
   261                        ; data from the IDE Drive to memory. Write operations move data from memory to IDE Drive here,
   262                        ; but uses an interrupt to finalize the transfer.
   263                        ;
   264                        ; The registers used are the same for read/write. These are:
   265                        ;
   266                        ;       IDE_COMMAND = function requested (20h = READ LBA command - 30h = WRITE LBA command)
   267                        ;       IDE_DRV_HEAD = (Upper 4 bits) used as:
   268                        ;               bit 7 = 1 per Seagate documentation
  Sat Apr  4 2026 16:30                                                                                                    Page 12


   269                        ;               bit 6 = 1 for LBA mode
   270                        ;               bit 5 = 1 per Seagate documentation
   271                        ;               bit 4 = 0 for Drive 0
   272                        ;       IDE_DRV_HEAD = LBA Address bits 27-24 (lower 4 bits) - not used, always 0000
   273                        ;       IDE_CYL_HIGH = LBA Address bits 23-16
   274                        ;       IDE_CYL_LOW = LBA Address bits 15-8
   275                        ;       IDE_SCT_NUM = LBA Address bits 7-0
   276                        ;       IDE_SCT_CNT = number of blocks to read
   277                        ;**************************************************************************************************
   278                        ;
   279                        IDE_READ_LBA                            ;Read a Block of data from IDE device
   280                        ;
   281 00:F85C: 20 D5 F8                     JSR     IDE_SET_PARMS   ;Setup required parameters (6)
   282 00:F85F: A9 20                        LDA     #$20            ;Get Read LBA command (2)
   283                        IDENT_READ                              ;Identify Command jumps here to complete
   284 00:F861: B7 FF                        SMB3    MATCH           ;Set Read LBA bit (5)
   285 00:F863: 8D 3F FE                     STA     IDE_COMMAND     ;Send command to IDE Controller (4)
   286                        ;
   287                        LBA_RD_CMD
   288 00:F866: AD 36 FE                     LDA     IDE_ALT_STATUS  ;Get IDE Alternate Status register (4)
   289 00:F869: 30 FB                        BMI     LBA_RD_CMD      ;Loop until IDE controller not Busy (2/3)
   290                        ;
   291                        LBA_RD_WAIT
   292 00:F86B: AD 36 FE                     LDA     IDE_ALT_STATUS  ;Get IDE Alternate Status register (4)
   293 00:F86E: C9 50                        CMP     #$50            ;Compare for ready (2)
   294 00:F870: D0 04                        BNE     LBA_RD_ERR      ;If not, check for error condition (2/3)
   295                        LBA_RD_OK
   296 00:F872: BF FF FD                     BBS3    MATCH,LBA_RD_OK ;Wait for Read completed via ISR (5/6,7)
   297 00:F875: 60                           RTS                     ;Return to caller (status in A Reg) (6)
   298                        LBA_RD_ERR
   299 00:F876: 4A                           LSR     A               ;Shift error bit to carry (2)
   300 00:F877: 90 F2                        BCC     LBA_RD_WAIT     ;If clear, loop back and continue waiting (2/3)
   301                        ;
   302 00:F879: 37 FF                        RMB3    MATCH           ;Reset Read LBA bit (no ISR invoked) (5)
   303                        IDE_RWV_FIN
   304 00:F87B: AD 36 FE                     LDA     IDE_ALT_STATUS  ;Get IDE Alternate Status register (4)
   305 00:F87E: 85 FB                        STA     IDE_STATUS_RAM  ;Update RAM Status Register (3)
   306 00:F880: 60                           RTS                     ;Return to caller (6)
   307                        ;**************************************************************************************************
   308                        ;
   309                        IDE_WRITE_LBA                           ;Write a block of data to LBA
   310                        ;
   311 00:F881: 20 D5 F8                     JSR     IDE_SET_PARMS   ;Setup required parameters (6)
   312                        ;
   313 00:F884: A7 FF                        SMB2    MATCH           ;Set Write LBA bit (5)
   314 00:F886: A9 30                        LDA     #$30            ;Get Write LBA command (2)
   315 00:F888: 8D 3F FE                     STA     IDE_COMMAND     ;Send command to IDE Controller (4)
   316                        LBA_WR_CMD
   317 00:F88B: AD 36 FE                     LDA     IDE_ALT_STATUS  ;Get IDE Alternate Status register (4)
   318 00:F88E: 30 FB                        BMI     LBA_WR_CMD      ;Loop until IDE controller not Busy (2/3)
   319 00:F890: 4A                           LSR     A               ;Shift Error bit into Carry flag (2)
   320 00:F891: B0 30                        BCS     IDE_WRITE_ERR   ;If Carry set, IDE error (2/3)
   321                        ;
   322                        ; Write Block routine integrated into IDE_WRITE_LBA
   323                        ; - High byte needs to be loaded into the latch before the
   324                        ;   low byte is loaded into the Data Register!
   325                        ;
   326                        IDE_WRITE_BLK                           ;Write a block of data
   327 00:F893: 5A                           PHY                     ;Save Y reg (3)
   328 00:F894: A0 01                        LDY     #$01            ;Set offset for high byte latch (2)
   329                        ;
   330                        IDE_WRITE_LOOP
   331 00:F896: AD 36 FE                     LDA     IDE_ALT_STATUS  ;Get IDE Alternate Status register (4)
  Sat Apr  4 2026 16:30                                                                                                    Page 13


   332 00:F899: 29 08                        AND     #%00001000      ;Check for DRQ active (2)
   333 00:F89B: F0 18                        BEQ     IDE_WR_FIN      ;If not active, exit (below) (2/3)
   334                        IDE_WR_WBLK
   335 00:F89D: B1 F8                        LDA     (BIOS_XFERL),Y  ;Get first byte of buffer+1 (5)
   336 00:F89F: 8D 35 FE                     STA     IDE_16_WRITE    ;Place into high byte latch (4)
   337 00:F8A2: B2 F8                        LDA     (BIOS_XFERL)    ;Get first byte of buffer (5)
   338 00:F8A4: 8D 38 FE                     STA     IDE_DATA        ;Write buffer to IDE (writes a word) (4)
   339                        ;
   340                        ; - Buffer index needs to be incremented twice
   341                        ;
   342 00:F8A7: E6 F8                        INC     BIOS_XFERL      ;Increment pointers once (5)
   343 00:F8A9: D0 02                        BNE     IDE_WR_BLK1     ; (2/3)
   344 00:F8AB: E6 F9                        INC     BIOS_XFERH      ; (5)
   345                        IDE_WR_BLK1
   346 00:F8AD: E6 F8                        INC     BIOS_XFERL      ;Increment pointers again (5)
   347 00:F8AF: D0 E5                        BNE     IDE_WRITE_LOOP  ; (2/3)
   348 00:F8B1: E6 F9                        INC     BIOS_XFERH      ; (5)
   349 00:F8B3: 80 E1                        BRA     IDE_WRITE_LOOP  ;Loop back for 256 words (3)
   350                        ;
   351                        IDE_WR_FIN
   352                        ; When DRQ ends, 512 bytes have been sent to IDE controller. Controller then sets BUSY,
   353                        ; when finished processing data, controller clears BUSY and generates an interrupt.
   354                        ; So, we test for BUSY first and wait until the block is written.
   355                        ;
   356 00:F8B5: AD 36 FE                     LDA     IDE_ALT_STATUS  ;Get IDE Alternate Status register (4)
   357 00:F8B8: 30 FB                        BMI     IDE_WR_FIN      ;Loop until BUSY bit is clear (2/3)
   358                        ;
   359 00:F8BA: C6 FA                        DEC     BIOS_XFERC      ;Decrement Block Count to transfer (5)
   360 00:F8BC: D0 D8                        BNE     IDE_WRITE_LOOP  ;If not zero, branch back to write next LBA (2/3)
   361                        ;
   362                        WR_WAIT
   363 00:F8BE: AF FF FD                     BBS2    MATCH,WR_WAIT   ;Wait for Write completed via ISR (5/6,7)
   364 00:F8C1: 7A                           PLY                     ;Restore Y reg (4)
   365 00:F8C2: 60                           RTS                     ;Return to caller (6)
   366                        IDE_WRITE_ERR
   367 00:F8C3: 27 FF                        RMB2    MATCH           ;Reset Write LBA bit (no ISR) (5)
   368 00:F8C5: 80 B4                        BRA     IDE_RWV_FIN     ;Branch and finish up (3)
   369                        ;**************************************************************************************************
   370                        ;
   371                        IDE_SET_ADDRESS                         ;Set Address for LBA (read/write)
   372                        ;
   373                        ;This routine uses the A,Y,X registers to setup the address in memory that a block
   374                        ; will be read to or written from (16-bit address), along with the block count.
   375                        ; The Register usage is as follows:
   376                        ;       A Register = Memory address low byte
   377                        ;       Y Register = Memory address high byte
   378                        ;       X Register = Block count to transfer
   379 00:F8C7: 85 F2                        STA     LBA_ADDR_LOW    ;Set LBA low byte address (3)
   380 00:F8C9: 84 F3                        STY     LBA_ADDR_HIGH   ;Set LBA high byte address (3)
   381 00:F8CB: 86 F4                        STX     LBA_XFER_CNT    ;Set LBA Block count for xfer (3)
   382 00:F8CD: 60                           RTS                     ;Return to caller (6)
   383                        ;**************************************************************************************************
   384                        ;
   385                        IDE_SET_LBA                             ;Set LBA block for transfer (read/write)
   386                        ;
   387                        ;This routine sets the variables used to select the starting LBA for transfer.
   388                        ; The Register usage is as follows:
   389                        ;       A Register = LBA Address bits 7-0
   390                        ;       Y Register = LBA Address bits 15-8
   391                        ;       X Register = LBA Address bits 23-16
   392 00:F8CE: 85 F5                        STA     LBA_LOW_BYTE    ;Store Address bits 0-7 (3)
   393 00:F8D0: 84 F6                        STY     LBA_HIGH_BYTE   ;Store Address bits 8-15 (3)
   394 00:F8D2: 86 F7                        STX     LBA_EXT_BYTE    ;Store Address bits 16-23 (3)
  Sat Apr  4 2026 16:30                                                                                                    Page 14


   395 00:F8D4: 60                           RTS                     ;Return to caller (6)
   396                        ;**************************************************************************************************
   397                        ;
   398                        IDE_SET_PARMS                           ;Set All parameters for LBA transfers
   399                        ;
   400                        ;This routine sets the LBA number used for all transfers.
   401                        ; The IDE Controller is checked first to ensure it's ready to receive parameters, then the
   402                        ; the requested LBA (stored in Page Zero variables) are loaded into the IDE Controller registers,
   403                        ; followed by the required Mode parameters. The transfer address is then setup which points to
   404                        ; the memory location for the start of the data transfer.
   405                        ;
   406 00:F8D5: AD 36 FE                     LDA     IDE_ALT_STATUS  ;Get IDE Alternate Status register (4)
   407 00:F8D8: 30 FB                        BMI     IDE_SET_PARMS   ;Loop until BUSY bit is clear (2/3)
   408                        ;
   409                        ; Transfer parameters from working memory to IDE drive
   410                        ;
   411 00:F8DA: A5 F7                        LDA     LBA_EXT_BYTE    ;Set LBA bits 23-16 (3)
   412 00:F8DC: 8D 3D FE                     STA     IDE_CYL_HIGH    ;Send to IDE (4)
   413 00:F8DF: A5 F6                        LDA     LBA_HIGH_BYTE   ;Set LBA bits 15-8 (3)
   414 00:F8E1: 8D 3C FE                     STA     IDE_CYL_LOW     ;Send to IDE (4)
   415 00:F8E4: A5 F5                        LDA     LBA_LOW_BYTE    ;Get LBA bits 7-0 (3)
   416 00:F8E6: 8D 3B FE                     STA     IDE_SCT_NUM     ;Send to IDE (4)
   417 00:F8E9: A5 F4                        LDA     LBA_XFER_CNT    ;Get Block count to read (3)
   418 00:F8EB: 8D 3A FE                     STA     IDE_SCT_CNT     ;Send to IDE (4)
   419                        ;
   420                        IDE_SET_PARMS2                          ;Set partial parameters (non LBA xfer commands)
   421                        ;
   422 00:F8EE: A9 E0                        LDA     #%11100000      ;Set Drive 0, LBA mode, LBA bits 27-24 as 0 (2)
   423 00:F8F0: 8D 3E FE                     STA     IDE_DRV_HEAD    ;Send to IDE controller (4)
   424                        ;
   425 00:F8F3: A5 F2                        LDA     LBA_ADDR_LOW    ;Setup buffer address (3)
   426 00:F8F5: 85 F8                        STA     BIOS_XFERL      ;Store low byte (3)
   427 00:F8F7: A5 F3                        LDA     LBA_ADDR_HIGH   ;Block Buffer Address (3)
   428 00:F8F9: 85 F9                        STA     BIOS_XFERH      ;Store high byte (3)
   429 00:F8FB: A5 F4                        LDA     LBA_XFER_CNT    ;Get Block count to read (3)
   430 00:F8FD: 85 FA                        STA     BIOS_XFERC      ;Set BIOS Block count to Xfer (3)
   431 00:F8FF: 64 FB                        STZ     IDE_STATUS_RAM  ;Clear RAM Status Register, ISR updates it (3)
   432 00:F901: 60                           RTS                     ;Return to caller (6)
   433                        ;**************************************************************************************************
   434                        ;
   435                        TST_IDE_RDY
   436                        ;
   437                        ;Test for IDE Controller Ready
   438                        ;
   439                        ;This routine tests that the IDE Controller is ready and can accept a command for execution.
   440                        ; There are two bits in the status register to qualify this:
   441                        ; Bit 6 is for Ready and bit 4 is for Seek Complete. Both should be active to qualify the
   442                        ; drive as being ready (per Hitachi Microdrive documentation).
   443                        ; Note: It's also possible that bit 0 might be set, which indicates an error condition.
   444                        ; If an error has occurred, we should test for this and branch to handle the error condition.
   445                        ;
   446 00:F902: AD 36 FE                     LDA     IDE_ALT_STATUS  ;Get IDE Alternate Status register (4)
   447 00:F905: C9 51                        CMP     #$51            ;Test for Ready and Error bits on (2)
   448 00:F907: F0 69                        BEQ     IDE_RD_ERR      ;If yes, branch to error routine (2/3)
   449 00:F909: C9 50                        CMP     #$50            ;Test for Ready bits on (2)
   450 00:F90B: D0 F5                        BNE     TST_IDE_RDY     ;If not, loop back until ready (2/3)
   451 00:F90D: 60                           RTS                     ;Return to Caller (6)
   452                        ;**************************************************************************************************
   453                        ;
   454                        IDE_BOOT
   455                        ;
   456                        ;IDE Controller Boot routine
   457                        ;
  Sat Apr  4 2026 16:30                                                                                                    Page 15


   458                        ;This routine sets up the IDE Controller to load the first logical block from the disk.
   459                        ; This should be the partition record. Once loaded, the IDE controller is checked for any
   460                        ; error condition, then the partition record data is checked for the proper signature.
   461                        ; If the signature is correct, control is turned over to the partition record code,
   462                        ; otherwise, the appropiate error message is displayed and the system is halted.
   463                        ;
   464 00:F90E: 5F FF 67                     BBR5    MATCH,IDE_NOT_FOUND     ;Check for Drive Present, branch if not (5/6)
   465                        ;
   466 00:F911: A9 00                        LDA     #$00            ;Load low byte LBA address (2)
   467 00:F913: A8                           TAY                     ;Same for high LBA address (2)
   468 00:F914: AA                           TAX                     ;Same for extended LBA address (2)
   469 00:F915: 20 CE F8                     JSR     IDE_SET_LBA     ;Call BIOS to setup LBA number (6)
   470                        ;
   471 00:F918: A9 00                        LDA     #<LBA_BUFFER    ;Set Address low byte (2)
   472 00:F91A: A0 06                        LDY     #>LBA_BUFFER    ;Set Address high byte (2)
   473 00:F91C: A2 01                        LDX     #$01            ;Set Block count to 1 (2)
   474 00:F91E: 20 C7 F8                     JSR     IDE_SET_ADDRESS ;Set Xfer address and block count (6)
   475                        ;
   476 00:F921: 20 5C F8                     JSR     IDE_READ_LBA    ;Read Block Zero to Buffer (6)
   477 00:F924: A5 FB                        LDA     IDE_STATUS_RAM  ;Get Status from BIOS call (3)
   478 00:F926: 4A                           LSR     A               ;Shift error bit to carry (2)
   479 00:F927: B0 49                        BCS     IDE_RD_ERR      ;Branch if error (2/3)
   480                        ;
   481 00:F929: A2 FC                        LDX     #252            ;Get offset to signature (2)
   482 00:F92B: BD 00 06                     LDA     LBA_BUFFER,X    ;Get signature byte (4)
   483 00:F92E: C9 02                        CMP     #$02            ;Compare to $02 (2)
   484 00:F930: D0 3A                        BNE     BAD_PART_BLK    ;Branch if incorrect (2/3)
   485 00:F932: E8                           INX                     ;Increment index to next signature byte (2)
   486 00:F933: BD 00 06                     LDA     LBA_BUFFER,X    ;Get signature byte (4)
   487 00:F936: C9 65                        CMP     #$65            ;Compare to $65 (2)
   488 00:F938: D0 32                        BNE     BAD_PART_BLK    ;Branch if incorrect (2/3)
   489                        ;
   490                        ;Signature is good!
   491                        ; Now see if the user prefers to boot from the IDE drive or jump to the ROM Monitor
   492                        ;
   493                        USER_TIMEOUT
   494                        ; Once the partition block is loaded and signature verified, a timeout os started to
   495                        ; allow the user to jump into the Monitor code instead of default booting from the
   496                        ; IDE drive. This is also a safety in case the Boot Record is either damaged or
   497                        ; incorrectly configured as well as the boot image loaded by the Boot Record has any
   498                        ; issues. A default 5 seconds timeout should be sufficient to allow the user to interrupt
   499                        ; the boot process. The "ESC" key will be used to interrupt the boot and enter the Monitor.
   500                        ;
   501 00:F93A: A9 64                        LDA     #100            ;Setup timer for 1 second on MS delay (2)
   502 00:F93C: A2 00                        LDX     #0              ;Setup timer for 0 multiplier (2)
   503 00:F93E: A0 00                        LDY     #0              ; (2)
   504 00:F940: 20 82 F9                     JSR     SET_DLY         ;Call routine to set values (6)
   505                        ;
   506 00:F943: A9 D1                        LDA     #<BOOT_INT      ;Boot interrupt message (2)
   507 00:F945: A0 FE                        LDY     #>BOOT_INT      ; (2)
   508 00:F947: 20 0F FA                     JSR     PROMPTR         ;Send message to console (6)
   509                        ;
   510 00:F94A: A2 05                        LDX     #05             ;Set index for a 5 second loop (2)
   511                        BOOT_LOOP
   512 00:F94C: A9 2E                        LDA     #'.'            ;Get period character (2)
   513 00:F94E: 20 1C F8                     JSR     CHROUT          ;Send to console (6)
   514 00:F951: 20 89 F9                     JSR     EXE_MSDLY       ;Execute 1 second delay (6)
   515 00:F954: 20 03 F8                     JSR     CHRIN_NW        ;Check for console input (no waiting) (6)
   516 00:F957: B0 06                        BCS     CHK_INT         ;Input exists, check for ESC (2/3)
   517 00:F959: CA                           DEX                     ;Decrement count (2)
   518 00:F95A: D0 F0                        BNE     BOOT_LOOP       ;Branch back and continue timeout (2/3)
   519 00:F95C: 4C 00 06                     JMP     LBA_BUFFER      ;We're done waiting, execute partition code (3)
   520                        CHK_INT
  Sat Apr  4 2026 16:30                                                                                                    Page 16


   521 00:F95F: C9 1B                        CMP     #$1B            ;Check for ESC (2)
   522 00:F961: F0 03                        BEQ     ABORT_BOOT      ;Branch to Monitor (2/3)
   523 00:F963: CA                           DEX                     ;Decrement index count (2)
   524 00:F964: 80 E6                        BRA     BOOT_LOOP       ;Branch back and continue timeout (3)
   525                                
   526                        ABORT_BOOT
   527 00:F966: 20 E9 FB                     JSR     CROUT           ;Send CR/LF to console (6)
   528 00:F969: 4C 00 F0                     JMP     M_COLD_MON      ;Jump to the ROM Monitor cold start vector(3)
   529                        BAD_PART_BLK
   530 00:F96C: A9 C0                        LDA     #<BPART_MSG     ;Bad Partition message (2)
   531 00:F96E: A0 FE                        LDY     #>BPART_MSG     ; (2)
   532 00:F970: 80 0A                        BRA     IDE_NO_BOOT     ;Send message, enter Monitor Cold Start (3)
   533                        IDE_RD_ERR
   534 00:F972: A9 B1                        LDA     #<DRIVE_MSG     ;Microdrive Error message (2)
   535 00:F974: A0 FE                        LDY     #>DRIVE_MSG     ; (2)
   536 00:F976: 80 04                        BRA     IDE_NO_BOOT     ;Send message, enter Monitor Cold Start (3)
   537                        IDE_NOT_FOUND
   538 00:F978: A9 A0                        LDA     #<NO_DRIVE_MSG  ;No Microdrive Error message (2)
   539 00:F97A: A0 FE                        LDY     #>NO_DRIVE_MSG  ; (2)
   540 00:F97C: 20 0F FA     IDE_NO_BOOT     JSR     PROMPTR         ;Send Message to console (6)
   541 00:F97F: 4C 00 F0                     JMP     M_COLD_MON      ;Enter Monitor Cold Start (3)
   542                        ;
   543                        ;**************************************************************************************************
   544                        ;Delay Routines: SET_DLY sets up the MSDELAY value and also sets the 16-bit Long Delay
   545                        ; On entry, A Reg = 10-millisecond count, X Reg = High multiplier, Y Reg = Low multiplier
   546                        ; these values are used by the EXE_MSDLY and EXE_LGDLY routines. Minimum delay is 10ms
   547                        ; values for MSDELAY are $00-$FF ($00 = 256 times)
   548                        ; values for Long Delay are $0000-$FFFF (0-65535 times MSDELAY)
   549                        ; longest delay is 65,535*256*10ms = 16,776,960 * 0.01 = 167,769.60 seconds
   550                        ;
   551                        ;NOTE: All delay execution routines preserve registers (EXE_MSDLY, EXE_LGDLY)
   552                        ;
   553 00:F982: 85 EC        SET_DLY         STA     SETMS           ;Save Millisecond count (3)
   554 00:F984: 84 ED                        STY     DELLO           ;Save Low multiplier (3)
   555 00:F986: 86 EE                        STX     DELHI           ;Save High multiplier (3)
   556 00:F988: 60                           RTS                     ;Return to caller (6)
   557                        ;
   558                        ;EXE MSDELAY routine is the core delay routine. It sets the MSDELAY count value from the
   559                        ; SETMS variable, enables the MATCH flag, then waits for the MATCH flag to clear.
   560                        ;
   561 00:F989: 48           EXE_MSDLY       PHA                     ;Save A Reg (3)
   562 00:F98A: F7 FF                        SMB7    MATCH           ;Set MATCH flag bit (5)
   563 00:F98C: A5 EC                        LDA     SETMS           ;Get delay seed value (3)
   564 00:F98E: 85 EB                        STA     MSDELAY         ;Set MS delay value (3)
   565                        ;
   566 00:F990: FF FF FD     MATCH_LP        BBS7    MATCH,MATCH_LP  ;Test MATCH flag, loop until cleared (5/6,7)
   567 00:F993: 68                           PLA                     ;Restore A Reg (4)
   568 00:F994: 60                           RTS                     ;Return to caller (6)
   569                        ;
   570                        ;EXE LONG Delay routine is the 16-bit multiplier for the MSDELAY routine.
   571                        ; It loads the 16-bit count from DELLO/DELHI, then loops the MSDELAY routine
   572                        ; until the 16-bit count is decremented to zero.
   573                        ;
   574 00:F995: DA           EXE_LGDLY       PHX                     ;Save X Reg (3)
   575 00:F996: 5A                           PHY                     ;Save Y Reg (3)
   576 00:F997: A6 EE                        LDX     DELHI           ;Get high byte count (3)
   577 00:F999: E8                           INX                     ;Increment by one (checks for $00 vs $FF) (2)
   578 00:F99A: A4 ED                        LDY     DELLO           ;Get low byte count (3)
   579 00:F99C: F0 06                        BEQ     SKP_DLL         ;If zero, skip to high count (2/3)
   580 00:F99E: 20 89 F9     DO_DLL          JSR     EXE_MSDLY       ;Call millisecond delay (6)
   581 00:F9A1: 88                           DEY                     ;Decrement low count (2)
   582 00:F9A2: D0 FA                        BNE     DO_DLL          ;Branch back until done (2/3)
   583                        ;
  Sat Apr  4 2026 16:30                                                                                                    Page 17


   584 00:F9A4: CA           SKP_DLL         DEX                     ;Decrement high byte index (2)
   585 00:F9A5: D0 F7                        BNE     DO_DLL          ;Loop back to D0_DLL (will run 256 times) (2/3)
   586 00:F9A7: 7A                           PLY                     ;Restore Y Reg (4)
   587 00:F9A8: FA                           PLX                     ;Restore X Reg (4)
   588 00:F9A9: 60                           RTS                     ;Return to caller (6)
   589                        ;
   590                        ;**************************************************************************************************
   591                        ;COUNTER BENCHMARK TIMING ROUTINES
   592                        ; To enable some basic benchmarking, the following routines are part of C02BIOS version 5.x
   593                        ;
   594                        ; - CNT_INIT is used to zero the timing variables
   595                        ; - CNT_STRT is used to start the timing by setting bit 6 of the MATCH flag
   596                        ; - CNT_STOP is used to stop the timing by clearing bit 6 of the MATCH flag
   597                        ; - CNT_DISP is used to display the benchmark counter output (also stops the timing)
   598                        ;
   599                        ; Using the existing 10ms Jiffy Clock, three bytes of Page zero are used to hold variables;
   600                        ; - MS10_CNT - a 10ms count variable for 0.01 resolution of timing - resets at 100 counts (1 second)
   601                        ; - SECL_CNT - a low byte seconds count
   602                        ; - SECH_CNT - a high byte seconds count
   603                        ; This provides up to 65,535.99 seconds of timing with 0.01 seconds resolution
   604                        ; - NOTE: the count variables reset to zero after 65,535.99 seconds!
   605                        ;
   606                        ; The interrupt handler for the DUART timer increments the timing variables when bit 6 of the
   607                        ; MATCH flag is active.
   608                        ;
   609 00:F9AA: 67 FF        CNT_INIT        RMB6    MATCH           ;Clear bit 6 of MATCH flag, ensure timing is disabled (5)
   610 00:F9AC: 64 EF                        STZ     MS10_CNT        ;Zero 10ms timing count (3)
   611 00:F9AE: 64 F0                        STZ     SECL_CNT        ;Zero low byte of seconds timing count (3)
   612 00:F9B0: 64 F1                        STZ     SECH_CNT        ;Zero high byte of seconds timing count (3)
   613 00:F9B2: 60                           RTS                     ;Return to caller (6)
   614                        ;
   615 00:F9B3: E7 FF        CNT_STRT        SMB6    MATCH           ;Set bit 6 of MATCH flag to enable timing (5)
   616 00:F9B5: 60                           RTS                     ;Return to caller (6)
   617                        ;
   618 00:F9B6: 67 FF        CNT_STOP        RMB6    MATCH           ;Clear bit 6 of MATCH flag to disable timing (5)
   619 00:F9B8: 60                           RTS                     ;Return to caller (6)
   620                        ;
   621                        ;Display Benchmark timer:
   622                        ; Benchmark timer is stopped by clearing bit 6 of MATCH flag. Once the Benchmark counter is
   623                        ; stopped, the HEX2ASC routine prints the 16-bit seconds count, followed by a period,
   624                        ; then the HEX8ASC routine prints the hundreds count followed by the "Seconds" message.
   625                        ;
   626 00:F9B9: 67 FF        CNT_DISP        RMB6    MATCH           ;Stop Benchmark Counter (5)
   627 00:F9BB: A5 F0                        LDA     SECL_CNT        ;Get seconds low count (3)
   628 00:F9BD: A4 F1                        LDY     SECH_CNT        ;Get seconds high count (3)
   629 00:F9BF: 20 E5 F9                     JSR     HEX2ASC         ;Print 16-bit decimal value (6)
   630                        ;
   631 00:F9C2: A9 2E                        LDA     #"."            ;Get period character (2)
   632 00:F9C4: 20 1C F8                     JSR     CHROUT          ;Send "." to console (6)
   633 00:F9C7: A5 EF                        LDA     MS10_CNT        ;Get hundreds of seconds (3)
   634                        ;
   635                        ; Drop into HEX8ASC
   636                        ;
   637                        ;HEX8ASC - Accepts 8-bit Hexadecimal value (00-99 decimal) and converts to ASCII numeric values.
   638                        ; A Register contains the single byte value on entry and outputs the two ASCII numeric values.
   639                        ; leading zero is output as it is used for showing hundredths of a second after a decimal point.
   640 00:F9C9: A0 FF        HEX8ASC         LDY     #$FF            ;Load Y Reg with "-1" (2)
   641 00:F9CB: 38                           SEC                     ;Set carry for subtraction (2)
   642 00:F9CC: C8           HEX8LP1         INY                     ;Increment 10's count (starts at zero) (2)
   643 00:F9CD: E9 0A                        SBC     #10             ;Subtract 10 decimal (2)
   644 00:F9CF: B0 FB                        BCS     HEX8LP1         ;Branch back if >10 (2/3)
   645 00:F9D1: 69 3A                        ADC     #$3A            ;Add the last 10 back plus $30 (ASCII "0") (2)
   646 00:F9D3: 48                           PHA                     ;Save 1's count to the Stack (3)
  Sat Apr  4 2026 16:30                                                                                                    Page 18


   647 00:F9D4: 98                           TYA                     ;Get the 10's count (2)
   648 00:F9D5: 18                           CLC                     ;Clear carry for add (2)
   649 00:F9D6: 69 30                        ADC     #$30            ;Add $30 for ASCII digit (3)
   650 00:F9D8: 20 1C F8                     JSR     CHROUT          ;Print the first digit (10's)
   651 00:F9DB: 68                           PLA                     ;Get 1's count from the Stack (4)
   652 00:F9DC: 20 1C F8                     JSR     CHROUT          ;Print the second digit, return (6)
   653                        ;
   654 00:F9DF: A9 F0                        LDA     #<MSG_SEC       ;Get message for " Seconds" (2)
   655 00:F9E1: A0 FE                        LDY     #>MSG_SEC       ; (2)
   656 00:F9E3: 80 2A        PRMPT_SC        BRA     PROMPTR         ;Send to console, return (3)
   657                        ;
   658                        ;HEX2ASC - Accepts 16-bit Hexadecimal value and converts to an ASCII decimal string. Input is
   659                        ; via the A and Y Registers and output is up to 5 ASCII digits in DATABUFF. The High Byte is in
   660                        ; the Y Register and Low Byte is in the A Register. Output data is placed in variable DATABUFF
   661                        ; and terminated with a null character.
   662                        ; Note: leading zeros are suppressed. PROMPTR routine is used to print the ASCII decimal value.
   663                        ; Core routine based on Michael Barry's code. Saves many bytes with two updates/changes ;-)
   664 00:F9E5: 85 CE        HEX2ASC         STA     BINVALL         ;Save Low byte (3)
   665 00:F9E7: 84 CF                        STY     BINVALH         ;Save High byte (3)
   666 00:F9E9: A2 05                        LDX     #5              ;Get ASCII buffer offset (2)
   667 00:F9EB: 74 C8                        STZ     DATABUFF,X      ;Zero last buffer byte for null end (4)
   668                        ;
   669 00:F9ED: A9 00        CNVERT          LDA     #$00            ;Clear remainder (2)
   670 00:F9EF: A0 10                        LDY     #16             ;Set loop count for 16-bits (2)
   671                        ;
   672 00:F9F1: C9 05        DVLOOP          CMP     #$05            ;Partial remainder >= 10/2 (2)
   673 00:F9F3: 90 02                        BCC     DVLOOP2         ;Branch if less (2/3)
   674 00:F9F5: E9 05                        SBC     #$05            ;Update partial (carry set) (2)
   675                        ;
   676 00:F9F7: 26 CE        DVLOOP2         ROL     BINVALL         ;Shift carry into dividend (4)
   677 00:F9F9: 26 CF                        ROL     BINVALH         ;Which will be quotient (4)
   678 00:F9FB: 2A                           ROL     A               ;Rotate A Reg (3)
   679 00:F9FC: 88                           DEY                     ;Decrement count (2)
   680 00:F9FD: D0 F2                        BNE     DVLOOP          ;Branch back until done (2/3)
   681 00:F9FF: 09 30                        ORA     #$30            ;OR in $30 for ASCII (2)
   682                        ;
   683 00:FA01: CA                           DEX                     ;Decrement buffer offset (2)
   684 00:FA02: 95 C8                        STA     DATABUFF,X      ;Store digit into buffer (3)
   685                        ;
   686 00:FA04: A5 CE                        LDA     BINVALL         ;Get the Low byte (3)
   687 00:FA06: 05 CF                        ORA     BINVALH         ;OR in the High byte (check for zero) (3)
   688 00:FA08: D0 E3                        BNE     CNVERT          ;Branch back until done (2/3)
   689                        ;
   690                        ;Conversion is complete, get the string address, add offset, then call prompt routine and return
   691                        ; note: DATABUFF is fixed location in Page 0, carry flag need not be cleared as result can never
   692                        ; set flag after ADC instruction.
   693 00:FA0A: 8A                           TXA                     ;Get buffer offset (2)
   694 00:FA0B: 69 C8                        ADC     #<DATABUFF      ;Add Low byte address (2)
   695 00:FA0D: A0 00                        LDY     #>DATABUFF      ;Get High byte address (2)
   696                        ;
   697                        ;Drop into Prompt routine to print the 16-bit seconds count to console
   698                        ;
   699                        ;PROMPTR routine: takes message address in Y/A and prints via PROMPT2 routine
   700 00:FA0F: 85 D0        PROMPTR         STA     STRINGL         ;Store low byte (3)
   701 00:FA11: 84 D1                        STY     STRINGH         ;Store high byte (3)
   702                        ;
   703                        ;PROMPT2 routine: prints message at address (PROMPTL) till null character found
   704 00:FA13: B2 D0        PROMPT2         LDA     (STRINGL)       ;Get string data (5)
   705 00:FA15: F0 0B                        BEQ     PR_EXIT         ;If null character, exit (2/3)
   706 00:FA17: 20 1C F8                     JSR     CHROUT          ;Send character to terminal (6)
   707 00:FA1A: E6 D0                        INC     STRINGL         ;Increment low byte index (5)
   708 00:FA1C: D0 F5                        BNE     PROMPT2         ;Loop back for next character (2/3)
   709 00:FA1E: E6 D1                        INC     STRINGH         ;Increment high byte index (5)
  Sat Apr  4 2026 16:30                                                                                                    Page 19


   710 00:FA20: 80 F1                        BRA     PROMPT2         ;Loop back and continue printing (3)
   711 00:FA22: 60           PR_EXIT         RTS                     ;Return to caller
   712                        ;
   713                        ;**************************************************************************************************
   714                        ;Initializing the SC28L92 DUART as a Console.
   715                        ;An anomaly in the W65C02 processor requires a different approach in programming the SC28L92
   716                        ; for proper setup/operation. The SC28L92 uses three Mode Registers which are accessed at the same
   717                        ; register in sequence. There is a command that Resets the Mode Register pointer (to MR0) that is
   718                        ; issued first. Then MR0/1/2 are loaded in sequence. The problem with the W65C02 is a false read of
   719                        ; the register when using indexed addressing (i.e., STA UART_REGISTER,X). This results in the Mode
   720                        ; Register pointer being moved to the next register, so the write to next MRx never happens. While
   721                        ; the indexed list works fine for all other register functions/commands, the loading of the
   722                        ; Mode Registers need to be handled separately.
   723                        ;
   724                        ;NOTE: the W65C02 will function normally "if" a page boundary is crossed as part of the STA
   725                        ; (i.e., STA $FDFF,X) where the value of the X Register is high enough to cross the page boundary.
   726                        ; Programming in this manner would be confusing and require modification if the base I/O address
   727                        ; is changed for a different hardware I/O map.
   728                        ;
   729                        ;There are two routines called to setup the 28L92 DUART:
   730                        ;
   731                        ;The first routine is a RESET of the DUART.
   732                        ; It issues the following sequence of commands:
   733                        ;  1- Reset Break Change Interrupts
   734                        ;  2- Reset Receivers
   735                        ;  3- Reset Transmitters
   736                        ;  4- Reset All errors
   737                        ;
   738                        ;The second routine initializes the 28L92 DUART for operation. It uses two tables of data; one for
   739                        ; the register offset and the other for the register data. The table for register offsets is
   740                        ; maintained in ROM. The table for register data is copied to page $02, making it soft data. If
   741                        ; needed, operating parameters can be altered and the DUART re-initialized via the ROM routine.
   742                        ;
   743                        ; Note: A hardware reset will reset the SC28L92 and the default ROM config will be initialized.
   744                        ; Also note that the Panic routine invoked by a NMI trigger will also reset the DUART to the
   745                        ; default ROM config.
   746                        ;
   747 00:FA23: 20 57 FA     INIT_IO         JSR     RESET_28L92     ;Reset the SC28L92 DUART (both channels) (6)
   748 00:FA26: A9 64                        LDA     #DF_TICKS       ;Get divider for jiffy clock (100x10ms = 1 second) (2)
   749 00:FA28: 85 E6                        STA     TICKS           ;Preload TICK count (3)
   750                        ;
   751                        ;This routine sets the initial operating mode of the DUART
   752                        ;
   753 00:FA2A: 78           INIT_28L92      SEI                     ;Disable interrupts (2)
   754                        ;
   755 00:FA2B: A2 0F                        LDX     #INIT_DUART_E-INIT_DUART ;Get the Init byte count (2)
   756 00:FA2D: BD 1F 02     28L92_INT       LDA     LOAD_28L92-1,X  ;Get Data for 28L92 Register (4)
   757 00:FA30: BC 84 FE                     LDY     INIT_OFFSET-1,X ;Get Offset for 28L92 Register (4)
   758 00:FA33: 99 00 FE                     STA     SC28L92_BASE,Y  ;Store Data to selected register (5)
   759 00:FA36: CA                           DEX                     ;Decrement count (2)
   760 00:FA37: D0 F4                        BNE     28L92_INT       ;Loop back until all registers are loaded (2/3)
   761                        ;
   762                        ; Mode Registers are NOT reset to MR0 by above INIT_28L92!
   763                        ; The following resets the MR pointers for both channels, then sets the MR registers
   764                        ; for each channel. Note: the MR index is incremented to the next location after the write.
   765                        ; NOTE: These writes can NOT be done via indexed addressing modes!
   766                        ;
   767 00:FA39: A9 B0                        LDA     #%10110000      ;Get mask for MR0 Reset (2)
   768 00:FA3B: 8D 02 FE                     STA     UART_COMMAND_A  ;Reset Pointer for Port A (4)
   769 00:FA3E: 8D 0A FE                     STA     UART_COMMAND_B  ;Reset Pointer for Port B (4)
   770                        ;
   771 00:FA41: A2 03                        LDX     #$03            ;Set index for 3 bytes to xfer (2)
   772 00:FA43: BD 2F 02     MR_LD_LP        LDA     LOAD_28L92+15,X ;Get MR data for Port A (4)
  Sat Apr  4 2026 16:30                                                                                                    Page 20


   773 00:FA46: 8D 00 FE                     STA     UART_MODEREG_A  ;Send to 28L92 Port A (4)
   774 00:FA49: BD 32 02                     LDA     LOAD_28L92+18,X ;Get MR data for Port B (4)
   775 00:FA4C: 8D 08 FE                     STA     UART_MODEREG_B  ;Send to 28L92 Port B (4)
   776 00:FA4F: CA                           DEX                     ;Decrement index to next data (2)
   777 00:FA50: D0 F1                        BNE     MR_LD_LP        ;Branch back till done (2/3)
   778                        ;
   779 00:FA52: 58                           CLI                     ;Enable interrupts (2)
   780                        ;
   781                        ; Start Counter/Timer
   782                        ;
   783 00:FA53: AD 0E FE                     LDA     UART_START_CNT  ;Read register to start counter/timer (4)
   784 00:FA56: 60                           RTS                     ;Return to caller (6)
   785                        ;
   786                        ; This routine does a Reset of the SC28L92 - both channels
   787                        ;
   788 00:FA57: A2 04        RESET_28L92     LDX     #UART_RDATAE-UART_RDATA1 ;Get the Reset commands byte count (2)
   789 00:FA59: BD 80 FE     UART_RES1       LDA     UART_RDATA1-1,X ;Get Reset commands (4)
   790 00:FA5C: 8D 02 FE                     STA     UART_COMMAND_A  ;Send to UART A CR (4)
   791 00:FA5F: 8D 0A FE                     STA     UART_COMMAND_B  ;Send to UART B CR (4)
   792 00:FA62: CA                           DEX                     ;Decrement the command list index (2)
   793 00:FA63: D0 F4                        BNE     UART_RES1       ;Loop back until all are sent (2/3)
   794 00:FA65: 60                           RTS                     ;Return to caller (6)
   795                        ;
   796                        ;**************************************************************************************************
   797                        ;START OF PANIC ROUTINE
   798                        ;The Panic routine is for debug of system problems, i.e., a crash. The hardware design requires a
   799                        ; debounced NMI trigger button which is manually operated when the system crashes or malfunctions.
   800                        ;
   801                        ;User presses the NMI (panic) button. The NMI vectored routine will perform the following tasks:
   802                        ; 1- Save CPU registers in page zero locations
   803                        ; 2- Reset the MicroDrive and disable interrupts
   804                        ; 3- Clear all Console I/O buffer pointers
   805                        ; 4- Call the ROM routines to init the vectors and config data (page $02)
   806                        ; 5- Call the ROM routines to reset/init the DUART (SC28L92)
   807                        ; 6- Enter the Monitor via the warm start vector **
   808                        ;
   809                        ; Note: The additional hardware detection (RTC/IDE) are NOT executed with the Panic routine!
   810                        ; The interrupt vectors are restored without including the additional ISR for the IDE controller.
   811                        ; The Microdrive Reset_Off command is also set to disable any bus activity.
   812                        ;
   813                        ; Note: no memory is cleared except the required pointers/vectors to restore the system.
   814                        ;
   815 00:FA66: 78           NMI_VECTOR      SEI                     ;Disable interrupts (2)
   816 00:FA67: 85 D8                        STA     AREG            ;Save A Reg (3)
   817 00:FA69: 86 D7                        STX     XREG            ;Save X Reg (3)
   818 00:FA6B: 84 D6                        STY     YREG            ;Save Y Reg (3)
   819 00:FA6D: 68                           PLA                     ;Get Processor Status (4)
   820 00:FA6E: 85 D4                        STA     PREG            ;Save in PROCESSOR STATUS preset/result (3)
   821 00:FA70: BA                           TSX                     ;Get Stack pointer (4)
   822 00:FA71: 86 D5                        STX     SREG            ;Save STACK POINTER (3)
   823 00:FA73: 68                           PLA                     ;Pull RETURN address from STACK (4)
   824 00:FA74: 85 D2                        STA     PCL             ;Store Low byte (3)
   825 00:FA76: 68                           PLA                     ;Pull high byte (4)
   826 00:FA77: 85 D3                        STA     PCH             ;Store High byte (3)
   827                        ;
   828 00:FA79: A9 06                        LDA     #%00000110      ;Get mask for MicroDrive Reset/IRQ disable (2)
   829 00:FA7B: 8D 36 FE                     STA     IDE_DEV_CTRL    ;Send to MicroDrive (4)
   830                        ;
   831 00:FA7E: 9C 05 FE                     STZ     UART_IMR        ;Disable ALL interrupts from UART (4)
   832                        ;
   833 00:FA81: A2 0C                        LDX     #$0C            ;Set count for 12 (2)
   834 00:FA83: 74 D8        PAN_LP1         STZ     ICNT_A-1,X      ;Clear DUART I/O pointers (3)
   835 00:FA85: CA                           DEX                     ;Decrement index (2)
  Sat Apr  4 2026 16:30                                                                                                    Page 21


   836 00:FA86: D0 FB                        BNE     PAN_LP1         ;Branch back till done (2/3)
   837                        ;
   838 00:FA88: 20 9C FF                     JSR     INIT_PG02       ;Xfer default Vectors/HW Config to $0200 (6)
   839 00:FA8B: 20 23 FA                     JSR     INIT_IO         ;Reset and Init the UART for Console (6)
   840                        ;
   841 00:FA8E: A9 02                        LDA     #%00000010      ;Get mask for MicroDrive Reset off (2)
   842 00:FA90: 8D 36 FE                     STA     IDE_DEV_CTRL    ;Send to MicroDrive (4)
   843                        ;
   844 00:FA93: 6C 06 02                     JMP     (NMIRTVEC0)     ;Jump to NMI Return Vector (Monitor Warm Start) (6)
   845                        ;
   846                        ;**************************************************************************************************
   847                        ;BRK/IRQ Interrupt service routines
   848                        ;The pre-process routine located in page $FF soft-vectors to INTERUPT0/BRKINSTR0 below
   849                        ;       These are the routines that handle BRK and IRQ functions
   850                        ;       The BRK handler saves CPU details for register display
   851                        ;       - A Monitor can provide a disassembly of the last executed instruction
   852                        ;       - A Received Break is also handled here (ExtraPutty/Windows or Serial/OSX)
   853                        ;
   854                        ; SC28L92 handler
   855                        ;       The 28L92 IRQ routine handles Transmit, Receive, Timer and Received-Break interrupts
   856                        ;       - Transmit and Receive each have a 128 byte circular FIFO buffer in memory per channel
   857                        ;       - Xmit IRQ is controlled (On/Off) by the handler and the CHROUT(2) routine
   858                        ;
   859                        ; The 28L92 Timer resolution is 10ms and used as a Jiffy Clock for RTC, delays and benchmarking
   860                        ;**************************************************************************************************
   861                        ;BIOS routines to handle interrupt-driven I/O for the SC28L92
   862                        ; NOTE: IP0 Pin is used for RTS, which is automatically handled in the chip. As a result,
   863                        ; the upper 2 bits of the ISR are not used in the handler. The Lower 5 bits are used, but
   864                        ; the lower two are used to determine when to disable transmit after the buffer is empty.
   865                        ;
   866                        ;The DUART_ISR bits are defined as follows:
   867                        
   868                        ; Bit7          ;Input Change Interrupt
   869                        ; Bit6          ;Change Break B Interrupt
   870                        ; Bit5          ;RxRDY B Interrupt
   871                        ; Bit4          ;TxRDY B Interrupt
   872                        ; Bit3          ;Counter Ready Interrupt
   873                        ; Bit2          ;Change Break A Interrupt
   874                        ; Bit1          ;RxRDY A Interrupt
   875                        ; Bit0          ;TxRDY A Interrupt
   876                        ;
   877                        ; SC8L92 uses all bits in the Status Register!
   878                        ; - for Receive Buffer full, we set a bit in the SC28L92 Misc. Register, one for each Port.
   879                        ; Note that the Misc. Register in the SC28L92 is a free byte for storing the flags, as it's
   880                        ; not used when the DUART is configured in Intel mode! Freebie Register for us to use ;-)
   881                        ;
   882                        ; NOTE: The entry point for the BRK/IRQ handler is below at label INTERUPT0
   883                        ;**************************************************************************************************
   884                        ;ISR Routines for SC28L92 Port B
   885                        ;
   886                        ; The operation is the same as Port A below, sans the fact that the Break detection only resets
   887                        ; the DUART channel and returns, while Port A uses Break detection for other functions within
   888                        ; the BIOS structure, and processes the BRK routine shown further down.
   889                        ;
   890 00:FA96: A4 DF        UARTB_RCV       LDY     ICNT_B          ;Get input buffer count (3)
   891 00:FA98: 30 41                        BMI     BUFFUL_B        ;Check against limit ($80), branch if full (2/3)
   892                        ;
   893 00:FA9A: AD 09 FE     UARTB_RCVLP     LDA     UART_STATUS_B   ;Get Status Register (4)
   894 00:FA9D: 89 01                        BIT     #%00000001      ;Check RxRDY active (2)
   895 00:FA9F: F0 10                        BEQ     UARTB_CXMT      ;If RxRDY not set, FIFO is empty, check Xmit (2/3)
   896                        
   897 00:FAA1: AD 0B FE                     LDA     UART_RECEIVE_B  ;Else, get data from 28L92 (4)
   898 00:FAA4: A4 E1                        LDY     ITAIL_B         ;Get the tail pointer to buffer (3)
  Sat Apr  4 2026 16:30                                                                                                    Page 22


   899 00:FAA6: 99 00 04                     STA     IBUF_B,Y        ;Store into buffer (5)
   900 00:FAA9: E6 E1                        INC     ITAIL_B         ;Increment tail pointer (5)
   901 00:FAAB: 77 E1                        RMB7    ITAIL_B         ;Strip off bit 7, 128 bytes only (5)
   902 00:FAAD: E6 DF                        INC     ICNT_B          ;increment data count (5)
   903 00:FAAF: 10 E9                        BPL     UARTB_RCVLP     ;If input buffer not full, check for more FIFO data (2/3)
   904                        ;
   905 00:FAB1: AD 05 FE     UARTB_CXMT      LDA     UART_ISR        ;Get 28L92 ISR Reg (4)
   906 00:FAB4: 89 10                        BIT     #%00010000      ;Check for Xmit B active (2)
   907 00:FAB6: F0 20                        BEQ     REGEXT_B        ;Exit if inactive (2/3)
   908                        ;
   909                        ; To take advantage of the onboard FIFO, we test the TxRDY bit in the Status Register. If the
   910                        ; bit is set, then there is more room in the FIFO. The ISR routine here will attempt to fill
   911                        ; the FIFO from the Output Buffer. This saves processing time in the ISR itself.
   912                        ;
   913 00:FAB8: A5 E2        UARTB_XMT       LDA     OCNT_B          ;Get output buffer count, any data to xmit? (3)
   914 00:FABA: F0 17                        BEQ     NODATA_B        ;If zero, no data left, turn off xmit (2/3)
   915                        ;
   916 00:FABC: AD 09 FE     UARTB_XMTLP     LDA     UART_STATUS_B   ;Get Status Register (4)
   917 00:FABF: 89 04                        BIT     #%00000100      ;Check TxRDY active (2)
   918 00:FAC1: F0 15                        BEQ     REGEXT_B        ;If TxRDY not set, FIFO is full, exit ISR (2/3)
   919                        ;
   920 00:FAC3: A4 E3                        LDY     OHEAD_B         ;Get the head pointer to buffer (3)
   921 00:FAC5: B9 80 04                     LDA     OBUF_B,Y        ;Get the next data (4)
   922 00:FAC8: 8D 0B FE                     STA     UART_TRANSMIT_B ;Send the data to 28L92 (4)
   923 00:FACB: E6 E3                        INC     OHEAD_B         ;Increment head pointer (5)
   924 00:FACD: 77 E3                        RMB7    OHEAD_B         ;Strip off bit 7, 128 bytes only (5)
   925 00:FACF: C6 E2                        DEC     OCNT_B          ;Decrement counter (5)
   926 00:FAD1: D0 E9                        BNE     UARTB_XMTLP     ;If more data, loop back to send it (2/3)
   927                        ;
   928                        ;No more buffer data to send, check SC28L92 TxEMT and disable transmit if empty.
   929                        ; Note: If the TxEMT bit is set, then the FIFO is empty and all data has been sent.
   930                        ;
   931 00:FAD3: A0 08        NODATA_B        LDY     #%00001000      ;Else, get mask for xmit off (2)
   932 00:FAD5: 8C 0A FE                     STY     UART_COMMAND_B  ;Turn off xmit (4)
   933 00:FAD8: 6C 0A 02     REGEXT_B        JMP     (IRQRTVEC0)     ;Return to Exit/ROM IRQ handler (6)
   934                        ;
   935 00:FADB: A0 10        BUFFUL_B        LDY     #%00010000      ;Get Mask for Buffer full (2)
   936 00:FADD: 8C 0C FE                     STY     UART_MISC       ;Save into 28L92 Misc. Register (4)
   937 00:FAE0: 80 F6                        BRA     REGEXT_B        ;Exit IRQ handler (3)
   938                        ;
   939                        ;Received Break handler for Port B
   940                        ;
   941 00:FAE2: AD 09 FE     UARTB_BRK       LDA     UART_STATUS_B   ;Get DUART Status Register (4)
   942 00:FAE5: 30 0D                        BMI     BREAKEY_B       ;If bit 7 set, received Break was detected (2/3)
   943                        ;
   944                        ; If a received Break was not the cause, we should reset the DUART Port as the cause
   945                        ; could have been a receiver error, i.e., parity or framing
   946                        ;
   947 00:FAE7: A2 05                        LDX     #UART_RDATAE-UART_RDATA ;Get index count (2)
   948 00:FAE9: BD 7F FE     UARTB_RST1      LDA     UART_RDATA-1,X  ;Get Reset commands (4)
   949 00:FAEC: 8D 0A FE                     STA     UART_COMMAND_B  ;Send to DUART CR (4)
   950 00:FAEF: CA                           DEX                     ;Decrement the command list (2)
   951 00:FAF0: D0 F7                        BNE     UARTB_RST1      ;Loop back until all are sent (2/3)
   952 00:FAF2: 80 E4                        BRA     REGEXT_B        ;Exit (3)
   953                        ;
   954                        ; A received Break was the cause. Just reset the receiver and return.
   955                        ;
   956 00:FAF4: A9 40        BREAKEY_B       LDA     #%01000000      ;Get Reset Received Break command (2)
   957 00:FAF6: 8D 0A FE                     STA     UART_COMMAND_B  ;Send to DUART to reset (4)
   958 00:FAF9: A9 50                        LDA     #%01010000      ;Get Reset Break Interrupt command (2)
   959 00:FAFB: 8D 0A FE                     STA     UART_COMMAND_B  ;Send to DUART to reset (4)
   960 00:FAFE: 80 D8                        BRA     REGEXT_B        ;Exit (3)
   961                        ;
  Sat Apr  4 2026 16:30                                                                                                    Page 23


   962                        ;**************************************************************************************************
   963                        ;This is the IRQ handler entry point for the SC28L92 DUART.
   964                        ; This is the first IRQ handler unless an IDE device is found during cold start. By default, it
   965                        ; will take 25 clock cycles to arrive here after an interrupt is generated. If an IDE device is
   966                        ; present, the IDE handler will be processed first. If no IDE interrupt is active, it will take
   967                        ; an additional 33 cycles to arrive here.
   968                        ;
   969                        ; The ISR checks for interrupt sources as follows:
   970                        ; - Timer/Counter, to ensure accurate software RTC and benchmark/delay timings
   971                        ; - Serial Port 2, to provide fast data transfers to a separate device
   972                        ; - Serial Port 1, for standard Console access
   973                        ;
   974                        INTERUPT0                               ;Interrupt 0 to handle the SC28L92 DUART
   975 00:FB00: AD 05 FE                     LDA     UART_ISR        ;Get the UART Interrupt Status Register (4)
   976 00:FB03: F0 1E                        BEQ     REGEXT_0        ;If no bits are set, exit handler (2/3)
   977                        ;
   978 00:FB05: 89 08                        BIT     #%00001000      ;Test for Counter ready (RTC) (2)
   979 00:FB07: D0 1D                        BNE     UART_RTC        ;If yes, go increment RTC variables (2/3)
   980                        ;
   981 00:FB09: 89 40                        BIT     #%01000000      ;Test for Break on B (2)
   982 00:FB0B: D0 D5                        BNE     UARTB_BRK       ;If yes, Reset the DUART receiver (2/3)
   983                        ;
   984 00:FB0D: 89 20                        BIT     #%00100000      ;Test for RHR B having data (2)
   985 00:FB0F: D0 85                        BNE     UARTB_RCV       ;If yes, put the data in the buffer (2/3)
   986                        ;
   987 00:FB11: 89 10                        BIT     #%00010000      ;Test for THR B ready to receive data (2)
   988 00:FB13: D0 A3                        BNE     UARTB_XMT       ;If yes, get data from the buffer (2/3)
   989                        ;
   990 00:FB15: 89 04                        BIT     #%00000100      ;Test for Break on A (2)
   991 00:FB17: D0 5C                        BNE     UARTA_BRK       ;If yes, Reset the DUART receiver (2/3)
   992                        ;
   993 00:FB19: 89 02                        BIT     #%00000010      ;Test for RHR A having data (2)
   994 00:FB1B: D0 0C                        BNE     UARTA_RCV       ;If yes, put the data in the buffer (2/3)
   995                        ;
   996 00:FB1D: 89 01                        BIT     #%00000001      ;Test for THR A ready to receive data (2)
   997 00:FB1F: D0 2A                        BNE     UARTA_XMT       ;If yes, get data from the buffer (2/3)
   998                        ;
   999                        ; if none of the above bits caused the IRQ, the only bit left is the change input port.
  1000                        ; just save it in the temp IRT register in page zero and exit.
  1001                        ;
  1002 00:FB21: 85 E5                        STA     UART_IRT        ;Save the 28L92 ISR for later use (3)
  1003 00:FB23: 6C 0A 02     REGEXT_0        JMP     (IRQRTVEC0)     ;Return to Exit/ROM IRQ handler (6)
  1004                        ;
  1005 00:FB26: 4C 4B FC     UART_RTC        JMP     UART_RTC0       ;Jump to RTC handler (3)
  1006                        ;
  1007                        ;**************************************************************************************************
  1008                        ;ISR Routines for SC28L92 Port A
  1009                        ;
  1010                        ; The Receive Buffer is checked first to ensure there is open space in the buffer.
  1011                        ; By loadng the input count, bit7 will be set if it is full, which will set the "N"
  1012                        ; flag in the CPU status register. If this is the case, we exit to BUFFUL_A and set
  1013                        ; a bit in the SC28L92 Misc. Register. If the buffer has space, we continue.
  1014                        ; 
  1015                        ; To take advantage of the onboard FIFO, we test the RxRDY bit in the Status Register.
  1016                        ; If the bit is set, the FIFO has data and the routine moves data from the FIFO into
  1017                        ; the Receive buffer. We loop back and contnue moving data from the FIFO to the buffer
  1018                        ; until the RxRDY bit is cleared (FIFO empty). If the FIFO is empty, we branch and
  1019                        ; check for a pending Transmit interrupt, just to save some ISR time.
  1020                        ;
  1021                        ; NOTE: the receiver is configured to use the Watchdog function. This will generate a
  1022                        ; receiver interrupt within 64 bit times once data is received (and the FIFO has not
  1023                        ; reached it's configured fill level). This provides the required operation for use
  1024                        ; as a console, as single character commands are common and would not fill the FIFO,
  Sat Apr  4 2026 16:30                                                                                                    Page 24


  1025                        ; which generates an interrupt based on the configured FIFO fill level.
  1026                        ;
  1027 00:FB29: A4 D9        UARTA_RCV       LDY     ICNT_A          ;Get input buffer count (3)
  1028 00:FB2B: 30 41                        BMI     BUFFUL_A        ;Check against limit ($80), branch if full (2/3)
  1029                        ;
  1030 00:FB2D: AD 01 FE     UARTA_RCVLP     LDA     UART_STATUS_A   ;Get Status Register (4)
  1031 00:FB30: 89 01                        BIT     #%00000001      ;Check RxRDY active (2)
  1032 00:FB32: F0 10                        BEQ     UARTA_CXMT      ;If RxRDY not set, FIFO is empty, check Xmit (2/3)
  1033                        
  1034 00:FB34: AD 03 FE                     LDA     UART_RECEIVE_A  ;Else, get data from 28L92 (4)
  1035 00:FB37: A4 DB                        LDY     ITAIL_A         ;Get the tail pointer to buffer (3)
  1036 00:FB39: 99 00 03                     STA     IBUF_A,Y        ;Store into buffer (5)
  1037 00:FB3C: E6 DB                        INC     ITAIL_A         ;Increment tail pointer (5)
  1038 00:FB3E: 77 DB                        RMB7    ITAIL_A         ;Strip off bit 7, 128 bytes only (5)
  1039 00:FB40: E6 D9                        INC     ICNT_A          ;Increment input bufffer count (5)
  1040 00:FB42: 10 E9                        BPL     UARTA_RCVLP     ;If input buffer not full, check for more FIFO data (2/3)
  1041                        ;
  1042 00:FB44: AD 05 FE     UARTA_CXMT      LDA     UART_ISR        ;Get 28L92 ISR Reg (4)
  1043 00:FB47: 89 01                        BIT     #%00000001      ;Check for Xmit A active (2)
  1044 00:FB49: F0 20                        BEQ     REGEXT_A        ;Exit if inactive, else drop into Xmit code (2/3)
  1045                        ;
  1046                        ;To take advantage of the onboard FIFO, we test the TxRDY bit in the Status Register.
  1047                        ; If the bit is set, then there is more room in the FIFO. The ISR routine here will attempt to
  1048                        ; fill the FIFO from the Output Buffer. This saves processing time in the ISR itself.
  1049                        ;
  1050 00:FB4B: A5 DC        UARTA_XMT       LDA     OCNT_A          ;Get output buffer count, any data to xmit? (3)
  1051 00:FB4D: F0 17                        BEQ     NODATA_A        ;If zero, no data left, turn off xmit (2/3)
  1052                        ;
  1053 00:FB4F: AD 01 FE     UARTA_XMTLP     LDA     UART_STATUS_A   ;Get Status Register (4)
  1054 00:FB52: 89 04                        BIT     #%00000100      ;Check TxRDY active (2)
  1055 00:FB54: F0 15                        BEQ     REGEXT_A        ;If TxRDY not set, FIFO is full, exit ISR (2/3)
  1056                        ;
  1057 00:FB56: A4 DD                        LDY     OHEAD_A         ;Get the head pointer to buffer (3)
  1058 00:FB58: B9 80 03                     LDA     OBUF_A,Y        ;Get the next data (4)
  1059 00:FB5B: 8D 03 FE                     STA     UART_TRANSMIT_A ;Send the data to 28L92 (4)
  1060 00:FB5E: E6 DD                        INC     OHEAD_A         ;Increment head pointer (5)
  1061 00:FB60: 77 DD                        RMB7    OHEAD_A         ;Strip off bit 7, 128 bytes only (5)
  1062 00:FB62: C6 DC                        DEC     OCNT_A          ;Decrement output buffer count (5)
  1063 00:FB64: D0 E9                        BNE     UARTA_XMTLP     ;If more data, loop back to send it (2/3)
  1064                        ;
  1065                        ;No more buffer data to send, check SC28L92 TxEMT and disable transmit if empty.
  1066                        ; Note: If the TxEMT bit is set, then the FIFO is empty and all data has been sent.
  1067                        ;
  1068 00:FB66: A0 08        NODATA_A        LDY     #%00001000      ;Else, get mask for xmit off (2)
  1069 00:FB68: 8C 02 FE                     STY     UART_COMMAND_A  ;Turn off xmit (4)
  1070 00:FB6B: 6C 0A 02     REGEXT_A        JMP     (IRQRTVEC0)     ;Return to Exit/ROM IRQ handler (6)
  1071                        ;
  1072 00:FB6E: A0 01        BUFFUL_A        LDY     #%00000001      ;Get Mask for Buffer full (2)
  1073 00:FB70: 8C 0C FE                     STY     UART_MISC       ;Save into 28L92 Misc. Register (4)
  1074 00:FB73: 80 F6                        BRA     REGEXT_A        ;Exit IRQ handler (3)
  1075                        ;
  1076                        ;Received Break handler for Port A
  1077                        ;
  1078 00:FB75: AD 01 FE     UARTA_BRK       LDA     UART_STATUS_A   ;Get DUART Status Register (4)
  1079 00:FB78: 30 0D                        BMI     BREAKEY_A       ;If bit 7 set, received Break was detected (2/3)
  1080                        ;
  1081                        ; If a received Break was not the cause, we should reset the DUART Port as the cause
  1082                        ; could have been a receiver error, i.e., parity or framing
  1083                        ;
  1084 00:FB7A: A2 05                        LDX     #UART_RDATAE-UART_RDATA ;Get index count (2)
  1085 00:FB7C: BD 7F FE     UARTA_RST1      LDA     UART_RDATA-1,X  ;Get Reset commands (4)
  1086 00:FB7F: 8D 02 FE                     STA     UART_COMMAND_A  ;Send to DUART CR (4)
  1087 00:FB82: CA                           DEX                     ;Decrement the command list (2)
  Sat Apr  4 2026 16:30                                                                                                    Page 25


  1088 00:FB83: D0 F7                        BNE     UARTA_RST1      ;Loop back until all are sent (2/3)
  1089 00:FB85: 80 E4                        BRA     REGEXT_A        ;Exit (3)
  1090                        ;
  1091                        ; A received Break was the cause. Reset the receiver and process the BRK routine.
  1092                        ;
  1093 00:FB87: A9 40        BREAKEY_A       LDA     #%01000000      ;Get Reset Received Break command (2)
  1094 00:FB89: 8D 02 FE                     STA     UART_COMMAND_A  ;Send to DUART to reset (4)
  1095 00:FB8C: A9 50                        LDA     #%01010000      ;Get Reset Break Interrupt command (2)
  1096 00:FB8E: 8D 02 FE                     STA     UART_COMMAND_A  ;Send to DUART to reset (4)
  1097                        ;
  1098 00:FB91: 58           BREAKEY         CLI                     ;Enable IRQ, drop into BRK handler (2)
  1099                        ;
  1100                        ;**************************************************************************************************
  1101                        ;
  1102                        ; BRK Vector defaults to here
  1103                        ;
  1104 00:FB92: 7A           BRKINSTR0       PLY                     ;Restore Y Reg (4)
  1105 00:FB93: FA                           PLX                     ;Restore X Reg (4)
  1106 00:FB94: 68                           PLA                     ;Restore A Reg (4)
  1107 00:FB95: 85 D8                        STA     AREG            ;Save A Reg (3)
  1108 00:FB97: 86 D7                        STX     XREG            ;Save X Reg (3)
  1109 00:FB99: 84 D6                        STY     YREG            ;Save Y Reg (3)
  1110 00:FB9B: 68                           PLA                     ;Get Processor Status (4)
  1111 00:FB9C: 85 D4                        STA     PREG            ;Save in PROCESSOR STATUS preset/result (3)
  1112 00:FB9E: BA                           TSX                     ;Xfer STACK pointer to X Reg (2)
  1113 00:FB9F: 86 D5                        STX     SREG            ;Save STACK pointer (3)
  1114                        ;
  1115 00:FBA1: FA                           PLX                     ;Pull Low RETURN address from STACK then save it (4)
  1116 00:FBA2: 86 D2                        STX     PCL             ;Store program counter Low byte (3)
  1117 00:FBA4: 7A                           PLY                     ;Pull High RETURN address from STACK then save it (4)
  1118 00:FBA5: 84 D3                        STY     PCH             ;Store program counter High byte (3)
  1119 00:FBA7: 4F D4 03                     BBR4    PREG,DO_NULL    ;Check for BRK bit set (5/6,7)
  1120                        ;
  1121                        ; This call simply shows CPU Register contents and invoked by a BRK opcode.
  1122                        ;
  1123 00:FBAA: 20 BA FB                     JSR     PRSTAT          ;Display CPU status (6)
  1124                        ;
  1125                        ; Note: This routine only clears Port A, as it is used for the Console
  1126                        ;
  1127 00:FBAD: A9 00        DO_NULL         LDA     #$00            ;Clear all Processor Status Register bits (2)
  1128 00:FBAF: 48                           PHA                     ;Push it to Stack (3)
  1129 00:FBB0: 28                           PLP                     ;Pull it to Processor Status (4)
  1130 00:FBB1: 64 DB                        STZ     ITAIL_A         ;Clear input buffer pointers (3)
  1131 00:FBB3: 64 DA                        STZ     IHEAD_A         ; (3)
  1132 00:FBB5: 64 D9                        STZ     ICNT_A          ; (3)
  1133 00:FBB7: 6C 08 02                     JMP     (BRKRTVEC0)     ;Done BRK service process, re-enter monitor (6)
  1134                        ;
  1135                        PRSTAT          
  1136 00:FBBA: A9 29                        LDA     #<PSTAT_MSG     ;CPU Status message (2)
  1137 00:FBBC: A0 FC                        LDY     #>PSTAT_MSG     ; (2)
  1138 00:FBBE: 20 0F FA                     JSR     PROMPTR         ;Send to console (6)
  1139 00:FBC1: A5 D2                        LDA     PCL             ;Get PC Low byte (3)
  1140 00:FBC3: A4 D3                        LDY     PCH             ;Get PC High byte (3)
  1141 00:FBC5: 20 0A FC                     JSR     PRWORD          ;Print 16-bit word (6)
  1142 00:FBC8: 20 F6 FB                     JSR     SPC             ;Send 1 space (6)
  1143                        ;
  1144 00:FBCB: A2 04                        LDX     #$04            ;Set for count of 4 (2)
  1145 00:FBCD: B5 D4        REGPLOOP        LDA     PREG,X          ;Start with A Reg variable (4)
  1146 00:FBCF: 20 FB FB                     JSR     PRBYTE          ;Print it (6)
  1147 00:FBD2: 20 F6 FB                     JSR     SPC             ;Send 1 space (6)
  1148 00:FBD5: CA                           DEX                     ;Decrement count (2)
  1149 00:FBD6: D0 F5                        BNE     REGPLOOP        ;Loop back till all 4 are sent (2/3)
  1150                        ;
  Sat Apr  4 2026 16:30                                                                                                    Page 26


  1151 00:FBD8: A5 D4                        LDA     PREG            ;Get Status Register preset (3)
  1152 00:FBDA: A2 08                        LDX     #$08            ;Get the index count for 8 bits (2)
  1153 00:FBDC: 0A           SREG_LP         ASL     A               ;Shift bit into Carry (2)
  1154 00:FBDD: 48                           PHA                     ;Save current (shifted) SR value (3)
  1155 00:FBDE: A9 30                        LDA     #$30            ;Load an Ascii zero (2)
  1156 00:FBE0: 69 00                        ADC     #$00            ;Add zero (with Carry) (2)
  1157 00:FBE2: 20 1C F8                     JSR     CHROUT          ;Print bit value (0 or 1) (6)
  1158 00:FBE5: 68                           PLA                     ;Get current (shifted) SR value (4)
  1159 00:FBE6: CA                           DEX                     ;Decrement bit count (2)
  1160 00:FBE7: D0 F3                        BNE     SREG_LP         ;Loop back until all 8 printed, drop to CROUT (2/3)
  1161                        ;
  1162                        ;Send CR/LF to terminal
  1163 00:FBE9: 48           CROUT           PHA                     ;Save A Reg (3)
  1164 00:FBEA: A9 0D                        LDA     #$0D            ;Get ASCII Return (2)
  1165 00:FBEC: 20 1C F8                     JSR     CHROUT          ;Send to terminal (6)
  1166 00:FBEF: A9 0A                        LDA     #$0A            ;Get ASCII Linefeed (2)
  1167 00:FBF1: 20 1C F8     SENDIT          JSR     CHROUT          ;Send to terminal (6)
  1168 00:FBF4: 68                           PLA                     ;Restore A Reg (4)
  1169 00:FBF5: 60                           RTS                     ;Return to caller (6)
  1170                        ;
  1171 00:FBF6: 48           SPC             PHA                     ;Save character in A Reg (3)
  1172 00:FBF7: A9 20                        LDA     #$20            ;Get ASCII Space (2)
  1173 00:FBF9: 80 F6                        BRA     SENDIT          ;Branch to send (3)
  1174                        ;
  1175                        ;PRBYTE subroutine: Converts a single Byte to 2 HEX ASCII characters and sends to console on
  1176                        ; entry, A Reg contains the Byte to convert/send. Register contents are preserved on entry/exit.
  1177 00:FBFB: 48           PRBYTE          PHA                     ;Save A Register (3)
  1178 00:FBFC: 5A                           PHY                     ;Save Y Register (3)
  1179 00:FBFD: 20 14 FC     PRBYT2          JSR     BIN2ASC         ;Convert A Reg to 2 ASCII Hex characters (6)
  1180 00:FC00: 20 1C F8                     JSR     CHROUT          ;Print high nibble from A Reg (6)
  1181 00:FC03: 98                           TYA                     ;Transfer low nibble to A Reg (2)
  1182 00:FC04: 20 1C F8                     JSR     CHROUT          ;Print low nibble from A Reg (6)
  1183 00:FC07: 7A                           PLY                     ;Restore Y Register (4)
  1184 00:FC08: 68                           PLA                     ;Restore A Register (4)
  1185 00:FC09: 60                           RTS                     ;Return to caller (6)
  1186                        ;
  1187                        ;PRWORD subroutine: Converts a 16-bit word to 4 HEX ASCII characters and sends to console. On
  1188                        ; entry, A Reg contains Low Byte, Y Reg contains High Byte. Registers are preserved on entry/exit.
  1189                        ; NOTE: Routine changed for consistency; A Reg = Low byte, Y Reg = High byte on 2nd May 2020
  1190 00:FC0A: 48           PRWORD          PHA                     ;Save A Register (Low) (3)
  1191 00:FC0B: 5A                           PHY                     ;Save Y Register (High) (3)
  1192 00:FC0C: 48                           PHA                     ;Save Low byte again (3)
  1193 00:FC0D: 98                           TYA                     ;Xfer High byte to A Reg (2)
  1194 00:FC0E: 20 FB FB                     JSR     PRBYTE          ;Convert and print one HEX character (00-FF) (6)
  1195 00:FC11: 68                           PLA                     ;Get Low byte value (4)
  1196 00:FC12: 80 E9                        BRA     PRBYT2          ;Finish up Low Byte and exit (3)
  1197                        ;
  1198                        ;BIN2ASC subroutine: Convert single byte to two ASCII HEX digits
  1199                        ; Enter: A Register contains byte value to convert
  1200                        ; Return: A Register = high digit, Y Register = low digit
  1201 00:FC14: 48           BIN2ASC         PHA                     ;Save A Reg on stack (3)
  1202 00:FC15: 29 0F                        AND     #$0F            ;Mask off high nibble (2)
  1203 00:FC17: 20 20 FC                     JSR     ASCII           ;Convert nibble to ASCII HEX digit (6)
  1204 00:FC1A: A8                           TAY                     ;Move to Y Reg (2)
  1205 00:FC1B: 68                           PLA                     ;Get character back from stack (3)
  1206 00:FC1C: 4A                           LSR     A               ;Shift high nibble to lower 4 bits (2)
  1207 00:FC1D: 4A                           LSR     A               ; (2)
  1208 00:FC1E: 4A                           LSR     A               ; (2)
  1209 00:FC1F: 4A                           LSR     A               ; (2)
  1210                        ;
  1211 00:FC20: C9 0A        ASCII           CMP     #$0A            ;Check for 10 or less (2)
  1212 00:FC22: 90 02                        BCC     ASCOK           ;Branch if less than 10 (2/3)
  1213 00:FC24: 69 06                        ADC     #$06            ;Add $06+CF ($07) for A-F (2)
  Sat Apr  4 2026 16:30                                                                                                    Page 27


  1214 00:FC26: 69 30        ASCOK           ADC     #$30            ;Add $30 for ASCII (2)
  1215 00:FC28: 60                           RTS                     ;Return to caller (6)
  1216                        ;
  1217                        ; Text Data for the BIOS CPU Register Display:
  1218                        ;
  1219                        PSTAT_MSG
  1220 00:FC29: 0D 0A                .DB     $0D,$0A
  1221 00:FC2B: 20 20 20 50          .DB      "   PC  AC XR YR SP NV-BDIZC",$0D,$0A
       00:FC2F: 43 20 20 41 
       00:FC33: 43 20 58 52 
       00:FC37: 20 59 52 20 
       00:FC3B: 53 50 20 4E 
       00:FC3F: 56 2D 42 44 
       00:FC43: 49 5A 43 0D 
       00:FC47: 0A 
  1222 00:FC48: 3B 20                .DB     "; "
  1223 00:FC4A: 00                   .DB     $00
  1224                        ;
  1225                        ;**************************************************************************************************
  1226                        ;
  1227                        ;Entry for ISR to service the timer/counter interrupt.
  1228                        ;
  1229                        ; NOTE: Stop timer cmd resets the interrupt flag, counter continues to generate interrupts.
  1230                        ; NOTE: 38 clock cycles to here from INTERUPT0 - 68 in total, sans IDE ISR if active.
  1231                        ;
  1232 00:FC4B: AD 0F FE     UART_RTC0       LDA     UART_STOP_CNT   ;Get Command mask for stop timer (4)
  1233                        ;
  1234                        ; Check the MATCH flag bit7 to see if a Delay is active. If yes, decrement the MSDELAY
  1235                        ; variable once each pass until it is zero, then clear the MATCH flag bit7
  1236                        ;
  1237 00:FC4E: 7F FF 06                     BBR7    MATCH,SKIP_DLY  ;Skip Delay if bit7 is clear (5/6,7)
  1238 00:FC51: C6 EB                        DEC     MSDELAY         ;Decrement Millisecond delay variable (5)
  1239 00:FC53: D0 02                        BNE     SKIP_DLY        ;If not zero, skip (2/3)
  1240 00:FC55: 77 FF                        RMB7    MATCH           ;Else clear MATCH flag (5)
  1241                        ;
  1242                        ; Check the MATCH flag bit6 to see if Benchmarking is active. If yes, increment the
  1243                        ; variables once each pass until the MATCH flag bit6 is inactive.
  1244                        ;
  1245 00:FC57: 6F FF 10     SKIP_DLY        BBR6    MATCH,SKIP_CNT  ;Skip Count if bit6 is clear (5/6,7)
  1246 00:FC5A: E6 EF                        INC     MS10_CNT        ;Else, increment 10ms count (5)
  1247 00:FC5C: A5 EF                        LDA     MS10_CNT        ;Load current value (3)
  1248 00:FC5E: C9 64                        CMP     #100            ;Compare for 1 second elapsed time (2)
  1249 00:FC60: 90 08                        BCC     SKIP_CNT        ;If not, skip to RTC update (2/3)
  1250 00:FC62: 64 EF                        STZ     MS10_CNT        ;Else, zero 10ms count (3)
  1251 00:FC64: E6 F0                        INC     SECL_CNT        ;Increment low byte elapsed seconds (5)
  1252 00:FC66: D0 02                        BNE     SKIP_CNT        ;If no overflow, skip to RTC update (2/3)
  1253 00:FC68: E6 F1                        INC     SECH_CNT        ;Else, increment high byte elapsed seconds (5)
  1254                        ;
  1255 00:FC6A: C6 E6        SKIP_CNT        DEC     TICKS           ;Decrement RTC tick count (5)
  1256 00:FC6C: D0 12                        BNE     REGEXT_RTC      ;Exit if not zero (2/3)
  1257 00:FC6E: A9 64                        LDA     #DF_TICKS       ;Get default tick count (2)
  1258 00:FC70: 85 E6                        STA     TICKS           ;Reset tick count (3)
  1259                        ;
  1260 00:FC72: E6 E7                        INC     SECS_0          ;Increment lower clock byte (5)
  1261 00:FC74: D0 0A                        BNE     SKIP_1          ;If not zero, skip next update (2/3)
  1262                        ;
  1263 00:FC76: E6 E8                        INC     SECS_1          ;Increment second clock byte (5)
  1264 00:FC78: D0 06                        BNE     SKIP_1          ;If not zero, skip next update (2/3)
  1265                        ;
  1266 00:FC7A: E6 E9                        INC     SECS_2          ;Increment third clock byte (5)
  1267 00:FC7C: D0 02                        BNE     SKIP_1          ;If not zero, skip next update (2/3)
  1268                        ;
  1269 00:FC7E: E6 EA                        INC     SECS_3          ;Increment fourth clock byte (5)
  Sat Apr  4 2026 16:30                                                                                                    Page 28


  1270                        SKIP_1
  1271 00:FC80: 6C 0A 02     REGEXT_RTC      JMP     (IRQRTVEC0)     ;Return to Exit/ROM IRQ handler (6)     
  1272                        ;
  1273                        ;**************************************************************************************************
  1274                        ;
  1275                        ;Core routines that are used to detect and configure additional I/O devices.
  1276                        ; The I/O devices supported by the 5.x Release of C02BIOS contains two I/O devices:
  1277                        ; - A Maxim DS1318 Realtime Clock - new device!
  1278                        ; - An IDE Device, i.e., IBM/Hitachi MicroDrive
  1279                        ;
  1280                        ;The first routine detects the DS1318 RTC, followed by the routine to detect the IDE device.
  1281                        ;
  1282                        ;**************************************************************************************************
  1283                        ;
  1284                        ;This routine detects the DS1318 RTC.
  1285                        ;
  1286                        ; According to the datasheet, the TE and ENOSC bits in register offset 0Ah will be set to "1"
  1287                        ; for normal update operation and the CCFG1 and CCFG0 bits will be "0" for normal operation.
  1288                        ;
  1289                        ; Note: With the W65C02 CPU, when an empty address is read by the CPU, the data that comes back
  1290                        ; will be a phantom of the upper byte of the address, or FEh for our hardware.
  1291                        ; This technique is used to detect both the DS1318 and the IDE device.
  1292                        ; If the TE and ENOSC are "1" and the CCFG1 and CCFG0 bits are "0", then the RTC is present and
  1293                        ; functioning. Only the upper 4 bits are needed to sense this, so we mask off the lower 4 bits
  1294                        ; and compare to "%11000000" to confirm the RTC.
  1295                        ;
  1296                        DETECT_RTC
  1297 00:FC83: AD 2A FE                     LDA     RTC_CONTROL_A   ;Get RTC Control Reg A (3)
  1298 00:FC86: 29 F0                        AND     #%11110000      ;Mask off bits for TE, ENOSC, CCFG1/0 (2)
  1299 00:FC88: C9 00                        CMP     #$11000000      ;Bits 7/6 should be on, 5/4 should be off (2)
  1300 00:FC8A: F0 01                        BEQ     FOUND_RTC       ;If bits are off, RTC is present (2/3)
  1301 00:FC8C: 60                           RTS                     ;Else Return, RTC not found (6)
  1302                        ;
  1303                        FOUND_RTC
  1304 00:FC8D: C7 FF                        SMB4    MATCH           ;Set Match Bit 4 for RTC present (5)
  1305 00:FC8F: A2 00                        LDX     #$00            ;Zero Index for RTC message (2)
  1306                        RTC_MSG_LP
  1307 00:FC91: BD B4 FF                     LDA     RTC_MSG,X       ;Get BIOS init msg (4)
  1308 00:FC94: F0 09                        BEQ     INIT_RTC_NC     ;If zero, msg done, go Init RTC (2/3)
  1309 00:FC96: 20 1C F8                     JSR     CHROUT          ;Send to console (6)
  1310 00:FC99: E8                           INX                     ;Increment Index
  1311 00:FC9A: 80 F5                        BRA     RTC_MSG_LP      ;Loop back until done (3)
  1312                        ;
  1313                        ;This routine reads the Binary data registers from the DS1318 RTC. Note that the DS1318 does not
  1314                        ; keep time and date variables, but a 32-bit binary number held in 4 registers. The 32-bit value
  1315                        ; is set by a separate program that considers "0000h" as Epoch time. As a result, if no RTC is
  1316                        ; present, the BIOS 32-bit RTC count starts at "0000h".
  1317                        ;
  1318                        INIT_RTC
  1319 00:FC9C: 4F FF 21                     BBR4    MATCH,NO_RTC    ;Check for RTC present, else exit (5/6,7)
  1320                        ;
  1321                        INIT_RTC_NC
  1322 00:FC9F: A2 64                        LDX     #DF_TICKS       ;Get BIOS default Tick count (2)
  1323 00:FCA1: 86 E6                        STX     TICKS           ;Reset the Tick count (3)
  1324                        ;
  1325                        RTC_UIP_LP
  1326 00:FCA3: AD 2C FE                     LDA     RTC_STATUS      ;Get RTC Status register (3)
  1327 00:FCA6: 29 40                        AND     #%01000000      ;Mask UIP bit (2)
  1328 00:FCA8: D0 F9                        BNE     RTC_UIP_LP      :Loop back util update is finished (2/3)
  1329                        ;
  1330 00:FCAA: A2 00                        LDX     #$00            ;Set X reg to zero for data xfer (2)
  1331 00:FCAC: A9 80                        LDA     #%10000000      ;Get TE Bit mask (2)
  1332 00:FCAE: 1C 2A FE                     TRB     RTC_CONTROL_A   ;Turn off TE Bit to disable update (6)
  Sat Apr  4 2026 16:30                                                                                                    Page 29


  1333                        ;
  1334                        RTC_LOAD_LOOP
  1335 00:FCB1: BD 22 FE                     LDA     RTC_SECONDS_0,X ;Get data from RTC (4)
  1336 00:FCB4: 95 E7                        STA     SECS_0,X        ;Store into RAM (4)
  1337 00:FCB6: E8                           INX                     ;Increment index
  1338 00:FCB7: E0 04                        CPX     #$04            ;Check for all 4 moved (2)
  1339 00:FCB9: D0 F6                        BNE     RTC_LOAD_LOOP   ;Loop back until done (2/3)
  1340                        ;
  1341 00:FCBB: A9 80                        LDA     #%10000000      ;Get TE Bit mask (2)
  1342 00:FCBD: 0C 2A FE                     TSB     RTC_CONTROL_A   ;Turn on TE Bit to enable update (6)
  1343 00:FCC0: 60           NO_RTC          RTS                     ;Return to caller (6)
  1344                        ;
  1345                        ;**************************************************************************************************
  1346                        ;
  1347                        ;This routine detects the IDE Port
  1348                        ; To detect the IDE controller, it can be a bit tricky. It might take several seconds from a
  1349                        ; physical Reset of the IDE Controller before the Busy flag goes off. During this time, any
  1350                        ; commands sent to the IDE controller will fail. As I like to say, "timing is everything". After
  1351                        ; quite a bit of testing, the easy way to detect the IDE controller present is to load the
  1352                        ; IDE_STATUS register. If an IDE Controller is not present, the A Reg will show a phantom address
  1353                        ; of $FE (high order IDE hardware address) and any initialization can be bypassed.
  1354                        ;
  1355                        ; If the IDE controller is present, the IDE_STATUS read may be invalid, so it's necessary
  1356                        ; to test the BUSY flag of the status register. Once the IDE Controller is no longer busy,
  1357                        ; the controller can be initialized. This does create an obvious pause in the startup, but
  1358                        ; ensures that the IDE controller can be reliably detected and initialized at boot time.
  1359                        ;
  1360                        ; As interrupts are disabled on the IDE Controller initially, it needs to be enabled before the
  1361                        ; setup is completed. A separate routine enables interrupts and is also called by the Reset-Diag
  1362                        ; function (JMP $FF00).
  1363                        ;
  1364                        DETECT_IDE
  1365 00:FCC1: AD 3F FE                     LDA     IDE_STATUS      ;Get the IDE Status (4)
  1366 00:FCC4: C9 FE                        CMP     #$FE            ;Check for an empty (phantom) address (2)
  1367 00:FCC6: D0 01                        BNE     IDE_INIT        ;If not #$FE, try to Init the IDE controller (2/3)
  1368 00:FCC8: 60                           RTS                     ;Else, return to caller, no IDE controller found (6)
  1369                        ;
  1370                        ;Init the IDE controller
  1371                        ; First, test for the IDE controller ready. If that works, execute the IDE device Diagnostics and
  1372                        ; check for successful completion. If it fails, exit without linking the IDE controller into the
  1373                        ; IRQ chain. Else, link IRQ chain and show message that the IDE device is found.
  1374                        ;
  1375                        IDE_INIT
  1376 00:FCC9: AD 36 FE                     LDA     IDE_ALT_STATUS  ;Get IDE Alternate Status register (4)
  1377 00:FCCC: 30 FB                        BMI     IDE_INIT        ;Loop until BUSY bit is clear (2/3)
  1378                        ;
  1379 00:FCCE: 20 6D FD                     JSR     IDE_DIAG        ;Run the self diagnostic (6)
  1380 00:FCD1: C9 50                        CMP     #$50            ;Check for $50 on A reg (drive ready) (2)
  1381 00:FCD3: D0 11                        BNE     NO_IDE          ;If not, no IDE present (2/3)
  1382 00:FCD5: E0 01                        CPX     #$01            ;X Reg will show #$01 if diags successful (2)
  1383 00:FCD7: D0 0D                        BNE     NO_IDE          ;If failed, exit (2/3)
  1384                        ;
  1385                        ; IDE Controller found and passed initial self diagnostics test.
  1386                        ; Send IDE Found message to terminal, note: X reg = $01.
  1387                        ;
  1388 00:FCD9: D7 FF                        SMB5    MATCH           ;Set Match Bit 5 for IDE present (5)
  1389 00:FCDB: BD BF FF     IDE_MSG_LP      LDA     IDE_MSG-1,X     ;Get BIOS init msg (minus 1 for X reg=1) (4)
  1390 00:FCDE: F0 09                        BEQ     IDE_SETUP       ;If zero, msg done, go setup IDE (2/3)
  1391 00:FCE0: 20 1C F8                     JSR     CHROUT          ;Send to console (6)
  1392 00:FCE3: E8                           INX                     ;Increment Index (2)
  1393 00:FCE4: 80 F5                        BRA     IDE_MSG_LP      ;Loop back until done (3)
  1394                        ;
  1395 00:FCE6: 4C 72 F9     NO_IDE          JMP     IDE_RD_ERR      ;Jump to drive error message (3)
  Sat Apr  4 2026 16:30                                                                                                    Page 30


  1396                        ;
  1397                        ;IDE Setup
  1398                        ; This will insert the IDE Controller ISR into the Interrupt Handler chain.
  1399                        ;
  1400                        ; First, disable interrupts, capture the current IRQ exit vector address
  1401                        ; and save it to the first Insert Vector. Second, load the IDE ISR routine
  1402                        ; address and store it to the main IRQ exit vector, then re-enable interrupts.
  1403                        ;
  1404                        ; Second, this routine will execute an Identify IDE command to load the Soft
  1405                        ; Config Data for the maximum LBA Count accessible by the current IDE device.
  1406                        ;
  1407                        ; Note: For performnce, the IDE ISR will be inserted before the DUART ISR!
  1408                        ;
  1409                        IDE_SETUP                               ;Insert IDE ISR into IRQ chain
  1410                        ;
  1411                        ; To load the IDE ISR Handler BEFORE the existing DUART ISR Handler:
  1412 00:FCE9: 78                           SEI                     ;Disable interrupts (2)
  1413                        ;
  1414 00:FCEA: AD 04 02                     LDA     IRQVEC0         ;Get low byte of current IRQ Exit (4)
  1415 00:FCED: AC 05 02                     LDY     IRQVEC0+1       ;Get high byte of current IRQ Exit (4)
  1416 00:FCF0: 8D 10 02                     STA     VECINSRT0       ;Save low byte of IRQ Exit to insert 0 (4)
  1417 00:FCF3: 8C 11 02                     STY     VECINSRT0+1     ;Save high byte of IRQ Exit to insert 0 (4)
  1418                        ;
  1419 00:FCF6: A9 99                        LDA     #<INTERUPT1     ;Get low byte of IDE ISR (2)
  1420 00:FCF8: A0 FD                        LDY     #>INTERUPT1     ;Get high byte of IDE ISR (2)
  1421 00:FCFA: 8D 04 02                     STA     IRQVEC0         ;Save low byte of IRQ Exit (4)
  1422 00:FCFD: 8C 05 02                     STY     IRQVEC0+1       ;Save high byte of IRQ Exit (4)
  1423                        ;
  1424 00:FD00: 58                           CLI                     ;Enable interrupts (2)
  1425 00:FD01: 20 90 FD                     JSR     IDE_EN_IRQ      ;Enable IDE Controller interrupt (6)
  1426                        ;
  1427                        ; Drop into Identify Drive routine
  1428                        ;
  1429                        IDE_IDENTIFY                            ;Identify Device
  1430                        ;
  1431                        ; This requests a 512-byte block of data that shows capabilities, CHS (not used), LBA Count, etc.
  1432                        ; The format is similar to Read LBA, except no LBA parameter is required. It effectively works as
  1433                        ; a Read Block operation and the data transferred is handled by the ISR for a Read Block.
  1434                        ; NOTE: The Identify Command is coded to load into the LBA_BUFFER (default address $0600).
  1435                        ;
  1436 00:FD04: A9 00                        LDA     #<LBA_BUFFER    ;Set Address low byte (2)
  1437 00:FD06: A0 06                        LDY     #>LBA_BUFFER    ;Set Address high byte (2)
  1438 00:FD08: A2 01                        LDX     #$01            ;Set Block count to 1 (2)
  1439 00:FD0A: 20 C7 F8                     JSR     IDE_SET_ADDRESS ;Set Xfer address and block count (6)
  1440                        IDENT_WAIT
  1441 00:FD0D: AD 36 FE                     LDA     IDE_ALT_STATUS  ;Get IDE Alternate Status register (4)
  1442 00:FD10: 30 FB                        BMI     IDENT_WAIT      ;Loop until BUSY bit is clear (2/3)
  1443                        
  1444                        
  1445 00:FD12: 20 EE F8                     JSR     IDE_SET_PARMS2  ;Setup required parameters (no LBA parameter) (6)
  1446                        ;
  1447 00:FD15: A9 EC                        LDA     #$EC            ;Get Identify Command (2)
  1448 00:FD17: 20 61 F8                     JSR     IDENT_READ      ;Use READ_LBA routine to finish (6)
  1449                        ;
  1450                        ; Identify data loaded in buffer. Now extract LBA count and store to Soft Config Data for usage
  1451                        ; by access routines (Read/Write). Four bytes are used and the format from the Identify
  1452                        ; Command are Low-order Word / High-order Word, where each word is in Big Endian. We will store
  1453                        ; the LBA count as Little Endian, Low-order Word / High-order Word.
  1454                        ; The offset from the buffer are Words 60-61 (decimal).
  1455                        ;
  1456                        ; A table is used to index the offset of bytes to move into consecutive soft data.
  1457                        ;
  1458 00:FD1A: A2 04                        LDX     #$04            ;Set count for 4 bytes (2)
  Sat Apr  4 2026 16:30                                                                                                    Page 31


  1459 00:FD1C: BC CB FF     LBA_SIZE        LDY     LBA_OFFSET-1,X  ;Get Offset to LBA count (4)
  1460 00:FD1F: B1 F2                        LDA     (LBA_ADDR_LOW),Y        ;Load LBA Data (5)
  1461 00:FD21: 9D 3B 02                     STA     LOAD_IDE-1,X    ;Store to Soft Config Data (5)
  1462 00:FD24: CA                           DEX                     ;Decrement count (2)
  1463 00:FD25: D0 F5                        BNE     LBA_SIZE        ;Loop back until done (2/3)
  1464 00:FD27: A9 02        SET_CACHE_WR    LDA     #$02            ;Command for set write cache (2)
  1465                        ;
  1466                        ; Enable/Disable Write Cache for Microdrive (single call)
  1467                        ; - to use: A Reg contains $02 to enable or $82 to disable
  1468                        ;
  1469                        IDE_SET_CACHE
  1470 00:FD29: 8D 39 FE                     STA     IDE_FEATURE     ;Send to IDE controller (4)
  1471 00:FD2C: A9 E0                        LDA     #%11100000      ;Get Drive 0, LBA. mode, etc. (2)
  1472 00:FD2E: 8D 3E FE                     STA     IDE_DRV_HEAD    ;Send to IDE controller (4)
  1473 00:FD31: A9 EF                        LDA     #$EF            ;Get Set Features Command (2)
  1474 00:FD33: 8D 3F FE                     STA     IDE_COMMAND     ;Send Command to set feature (4)
  1475 00:FD36: 20 02 F9                     JSR     TST_IDE_RDY     ;Test for Drive ready (6)
  1476 00:FD39: AD 3F FE                     LDA     IDE_STATUS      ;Get Status (4)
  1477 00:FD3C: AE 39 FE                     LDX     IDE_ERROR       ;Get Error (if any) (4)
  1478 00:FD3F: 60                           RTS                     ;Return to Caller (6)
  1479                        ;
  1480                        ; Reset IDE Controller and run Diagnostics
  1481                        ; The RECAL routine disables the IRQ function, so the routine to enable the IRQ
  1482                        ; is called, then drops into the get status routine before returning.
  1483                        ;
  1484                        ; Note: If an error occurs, the drive must be Reset to clear the error code!
  1485                        ; There are only 3 ways to clear a driver error:
  1486                        ; - Send a software reset command
  1487                        ; - Toggle the hardware Reset line
  1488                        ; - Perform a PowerOff/PowerOn sequence
  1489                        ;
  1490                        ; A software reset of the IDE controller is done by setting the SRST bit in the
  1491                        ; command register to a "1" for at least 5 microseconds, then clearing the SRST bit
  1492                        ; back to a "0".
  1493                        ;
  1494                        ; The IDE_RESET routine here will first perform a Software Reset to the controller,
  1495                        ; then issue a Drive Recalibrate command reset the Write Cache to on, then exit.
  1496                        ;
  1497                        IDE_RESET                               ;Do a Reset of IDE device
  1498 00:FD40: A9 04                        LDA     #%00000100      ;Get mask to set software reset (SRST bit) (2)
  1499 00:FD42: 8D 36 FE                     STA     IDE_DEV_CTRL    ;Send to control register (4)
  1500                        ;
  1501 00:FD45: A9 01                        LDA     #1              ;Setup timer for 10ms on MS delay (2)
  1502 00:FD47: A2 00                        LDX     #0              ;Setup timer for 0 multiplier (2)
  1503 00:FD49: A0 00                        LDY     #0              ; (2)
  1504 00:FD4B: 20 82 F9                     JSR     SET_DLY         ;Call routine to set values (6)
  1505 00:FD4E: 20 89 F9                     JSR     EXE_MSDLY       ;Execute 10ms delay (6)
  1506                        ;
  1507 00:FD51: A9 00                        LDA#%0000000            ;Get mask to reset software reset (SRST bit) (2)
  1508 00:FD53: 8D 36 FE                     STA     IDE_DEV_CTRL    ;Send to control register (4)
  1509                        ;
  1510 00:FD56: 20 71 FD                     JSR     IDE_RECAL       ;Call IDE_RESET (set LBA mode) (6)
  1511 00:FD59: 20 27 FD                     JSR     SET_CACHE_WR    ;Enable Write Cache (6)
  1512 00:FD5C: A9 08                        LDA     #%00001000      ;Get Mask to enable IRQ (2)
  1513 00:FD5E: 8D 36 FE                     STA     IDE_DEV_CTRL    ;Send to control register (4)
  1514                        ;
  1515                        ; Drop into Get Status routine after Diagnostics are run
  1516                        ;
  1517                        IDE_GET_STATUS                          ;Get Status/Error registers from the IDE controller
  1518                        ;
  1519                        ; This routine gets the current status of the IDE Controller and can be issued at any time.
  1520                        ; It does not rely on any interrupt capability as it's a simple read of the Status and the
  1521                        ; Error registers from the IDE Controller.
  Sat Apr  4 2026 16:30                                                                                                    Page 32


  1522                        ;
  1523                        ; Note: This routine should be called whenever an Error has occurred. It returns the contents of
  1524                        ; the Error Register in the X Register and the contents of the Status Register in the A Register.
  1525                        ;
  1526                        ; Details for the Registers are:
  1527                        ;
  1528                        ; Error Register:
  1529                        ;Bit 7 - CRC Error or Bad Block error
  1530                        ;Bit 6 - Uncorrectable Data Error
  1531                        ;Bit 5 - 0 (not used) MC (used for Removable-Media drives)
  1532                        ;Bit 4 - ID Not Found
  1533                        ;Bit 3 - 0 (not used) MCR (used for Removable-Media drives)
  1534                        ;Bit 2 - Aborted Command error
  1535                        ;Bit 1 - Track Zero not found error
  1536                        ;Bit 0 - Data Address Mark Not Found
  1537                        ;
  1538                        ; Status Register:
  1539                        ;Bit 7 - Busy - IDE Controller is Busy (all other bits invalid)
  1540                        ;Bit 6 - Drive Ready (IDE Controller Ready to accept Commands)
  1541                        ;Bit 5 - Drive Write Fault - Write Fault error has occurred
  1542                        ;Bit 4 - Drive Seek Complete - is active when the drive is not seeking
  1543                        ;Bit 3 - Data Request - bit set when the IDE Controller has Data to transfer (R/W)
  1544                        ;Bit 2 - Correctable Data - bit set when bad data was found and corrected (ECC)
  1545                        ;Bit 1 - Index - bit toggled from 0 to 1 once per disk revolution
  1546                        ;Bit 0 - Error - bit set when previous command ended with some sort of error
  1547                        ;
  1548 00:FD61: AD 36 FE                     LDA     IDE_ALT_STATUS  ;Get IDE Alternate Status register (4)
  1549 00:FD64: 30 FB                        BMI     IDE_GET_STATUS  ;Loop until BUSY bit is clear (2/3)
  1550                        ;
  1551 00:FD66: AD 3F FE                     LDA     IDE_STATUS      ;Get IDE Status Register (4)
  1552 00:FD69: AE 39 FE                     LDX     IDE_ERROR       ;Get IDE Error Register (4)
  1553 00:FD6C: 60                           RTS                     ;Return to Caller (6)
  1554                        ;
  1555                        IDE_DIAG                                ;Run internal Diagnostics on the IDE controller
  1556                        ;
  1557                        ;This is a basic self test for the IDE controller. This runs some internal tests for the
  1558                        ; IDE controller and returns with drive ready bits active ($50) and the error register as
  1559                        ; $01 if successful. For Diagnostics, the Error Register contains unique codes as follows:
  1560                        ;
  1561                        ;01h - No error Detected
  1562                        ;02h - Formatter device error
  1563                        ;03h - Sector Buffer error
  1564                        ;04h - ECC Circuitry error
  1565                        ;05h - Controller Microprocessor error
  1566                        ;8xH - Device 1 failed (not valid with a single drive system)
  1567                        ;
  1568                        ; Note: 80h ORed in for the Slave (second) Drive, lower bit definitions are the same!
  1569                        ;
  1570 00:FD6D: A9 90                        LDA     #$90            ;Get Diagnostic Command (2)
  1571 00:FD6F: 80 02                        BRA     IDE_SEND_CMD    ;Branch and send Command to IDE (3)
  1572                        ;
  1573                        IDE_RECAL                               ;Recalibrate Command
  1574                        ;
  1575                        ;This is the Recalibrate Command ($1x). Upon issue the IDE controller will move the heads to
  1576                        ; Cylinder 0 and read Head 0, Sector 1. If unsuccessful, an error will be posted.
  1577                        ;
  1578 00:FD71: A9 10                        LDA     #$10            ;Get Recalibrate Command (2)
  1579                        ;
  1580                        IDE_SEND_CMD                            ;Send a Command to the IDE controller
  1581                        ;
  1582                        ;Accepts a Command code via the A reg and sets up the necessary IDE Controller
  1583                        ; registers to accept it. It also tests to ensure the controller is ready
  1584                        ; to accept the command and get the Status and Error registers on return.
  Sat Apr  4 2026 16:30                                                                                                    Page 33


  1585                        ;
  1586 00:FD73: AA                           TAX                     ;Save Command to X Reg (2)
  1587 00:FD74: 20 02 F9                     JSR     TST_IDE_RDY     ;Wait for IDE to be ready (6)
  1588 00:FD77: A9 0A                        LDA     #%00001010      ;Get Mask to disable IRQ (2)
  1589 00:FD79: 8D 36 FE                     STA     IDE_DEV_CTRL    ;Send to control register (4)
  1590 00:FD7C: A9 E0                        LDA     #%11100000      ;Get Select Mask (LBA Mode, Drive 0) (2)
  1591 00:FD7E: 8D 3E FE                     STA     IDE_DRV_HEAD    ;Select Drive 0 (4)
  1592                        ;
  1593 00:FD81: 8E 3F FE                     STX     IDE_COMMAND     ;Send command to IDE (4)
  1594                        SEND_CMD_LP
  1595 00:FD84: AD 36 FE                     LDA     IDE_ALT_STATUS  ;Get IDE Alternate Status register (4)
  1596 00:FD87: 30 FB                        BMI     SEND_CMD_LP     ;Loop until BUSY bit is clear (2/3)
  1597                        ;
  1598 00:FD89: AD 3F FE                     LDA     IDE_STATUS      ;Get IDE Status Register (4)
  1599 00:FD8C: AE 39 FE                     LDX     IDE_ERROR       ;Get IDE Error Register (4)
  1600 00:FD8F: 60                           RTS                     ;Return to caller (6)
  1601                        ;
  1602                        ; Enable Interrupts on the IDE Controller. This needs to be executed during initial setup
  1603                        ; and anytime the Reset/Diag BIOS function is called.
  1604                        ;
  1605                        IDE_EN_IRQ                              ;Enable IDE Controller interrupt
  1606 00:FD90: 20 02 F9                     JSR     TST_IDE_RDY     ;Wait for IDE to be ready (6)
  1607 00:FD93: A9 08                        LDA     #%00001000      ;Get Mask to enable IRQ (2)
  1608 00:FD95: 8D 36 FE                     STA     IDE_DEV_CTRL    ;Send to control register (4)
  1609 00:FD98: 60                           RTS                     ;Return to caller (6)
  1610                        ;
  1611                        ;**************************************************************************************************
  1612                        ;
  1613                        ;Interrupt 1 - This is the ISR which is responsible for servicing the IDE controller.
  1614                        ; The RTC does not require any ISR capabilities as no Alarm functions are being used in the BIOS.
  1615                        ; There are extra inserts which can be used if needed at a later date.
  1616                        ; The only functions that might make sense would be to add the Alarm function at a future date.
  1617                        ;
  1618                        ;The ISR for the IDE controller will handle the data transfer for LBA read/write functions
  1619                        ; and handle any error conditions. By design, the 16-bit Data Transfer feature is used for:
  1620                        ; Reading and Writing of all LBA block data and the IDE Identification data.
  1621                        ;
  1622                        ;The BIOS is using the Alternate Status register to determine if DRQ (Data Request) is active.
  1623                        ; This works as a handshake for 16-bit data transfers without issue. Note that the normal Status
  1624                        ; register resets the interrupt when read, so this is only done once in the ISR per loop.
  1625                        ;
  1626                        ;Update: This ISR has been moved to the front of the ISR chain, i.e., this ISR routine gets
  1627                        ; serviced first, then jumps to the next ISR, which services the DUART. This makes a noticeable
  1628                        ; improvement in data transfer from the IDE controller. Note that overhead for this routine will
  1629                        ; add 33 clock cycles if it just exits (IDE controller did not generate an interrupt).
  1630                        ;
  1631                        ;To check if an interrupt has been generated by the IDE controller, the Alternate Status register
  1632                        ; will be read. This contains the same information as the standard Status register but will NOT
  1633                        ; reset the interrupt on the IDE controller. By reading the Alternate Status register first, we
  1634                        ; can determine what the status of the IDE controller is and take action if required.
  1635                        ; Note that not all bit settings imply an interrupt was generated. Specifically, looking at the
  1636                        ; bit definitions below, Bits 6 and 4 are set when the IDE is ready, hence a normal condition
  1637                        ; where nothing requires any attention. Also, a Busy condition can imply the IDE controller is
  1638                        ; working on a command but may not have generated an interrupt yet. If The Busy bit (7) is set,
  1639                        ; then all other bits are invalid per Seagate documentation, so we test for that first.
  1640                        ;
  1641                        ;One annoying feature of IDE is "when" interrupts are generated. For any Read operation, once
  1642                        ; the command has been accepted, data is placed into the IDE buffer, followed by generating
  1643                        ; an interrupt to the system. Once this is done, the system will read the data. By accessing the
  1644                        ; Status register, the interrupt will be reset. This is normal operation. For a write operation,
  1645                        ; The command is sent, then DRQ goes active, which requires the data be sent to the IDE Device.
  1646                        ; Once the data is written, an interrupt is generated after it's writing is completed.
  1647                        ; As a result, there's little value of having an ISR for servicing the write function.
  Sat Apr  4 2026 16:30                                                                                                    Page 34


  1648                        ; As interrupts are enabled for the IDE Controller, all generated interrupts must be handled.
  1649                        ;
  1650                        ; Status Register bits as defined as follows:
  1651                        ;       - Bit 7 = Busy (a Command has been accepted)
  1652                        ;       - Bit 6 = Ready (IDE controller is ready to accept a command)
  1653                        ;       - Bit 5 = Write Fault (A write command failed against the media)
  1654                        ;       - Bit 4 = DSC (is set when a Seek is completed)
  1655                        ;       - Bit 3 = Data Request (set when there is data to transfer, read or write)
  1656                        ;       - Bit 2 = Correction (set when a recoverable data error was corrected)
  1657                        ;       - Bit 1 = 0 (not used)
  1658                        ;       - Bit 0 = Error (set when the previous command had an unrecoverable error)
  1659                        ;
  1660                        ;       NOTE: 25 clock cycles to here if DUART ISR is second!
  1661                        ;
  1662                        INTERUPT1                               ;Interrupt 1 (IDE)
  1663 00:FD99: AD 36 FE                     LDA     IDE_ALT_STATUS  ;Get Alternate Status Register (4)
  1664 00:FD9C: 30 39                        BMI     REGEXT01        ;If Busy bit active, just exit (2/3)
  1665                        ;
  1666                        ; - Check for Data Request (DRQ), as the Read LBA operation is the main function
  1667                        ;   of the ISR, which will handle the data transfer from the IDE controller to store the
  1668                        ;   data into memory. This ISR will handle single and multiple block transfers.
  1669                        ;
  1670 00:FD9E: AD 3F FE                     LDA     IDE_STATUS      ;Get Status (resets IRQ) (4)
  1671 00:FDA1: 29 08                        AND     #%00001000      ;Check for DRQ (2)
  1672 00:FDA3: D0 05                        BNE     IDE_READ_BLK    ;Branch if active (2/3)
  1673                        ;
  1674                        ;If no DRQ is sensed, the other possibility is a LBA Write has occurred and an IRQ
  1675                        ; was generated after the transfer. So we check for this and branch accordingly.
  1676                        ;
  1677 00:FDA5: AF FF 32                     BBS2    MATCH,IDE_WRIT_BLK      ;If Bit 2 set, Write operation (5/6,7)
  1678 00:FDA8: 80 2D                        BRA     REGEXT01        ;Exit ISR handler (3)
  1679                        ;
  1680                        IDE_READ_BLK                            ;IDE Read a Block of data
  1681                        ;
  1682                        ;Note: Arrival here means that the DRQ bit in the status register is active.
  1683                        ; This implies that:
  1684                        ;  1- A LBA Block Read is in progress. If so, the data transfer will be handled below.
  1685                        ;     This also handles multiple LBA Reads and manages the pointers and such. It also
  1686                        ;     clears the LBA Read bit in the MATCH Flag when completed.
  1687                        ;
  1688                        ;  2- A LBA Block Write with multilpe blocks is in progress. If so, the actual data
  1689                        ;     transfer is handled via the IDE WRITE Block routine. An interrupt is generated
  1690                        ;     at the end of each LBA transfer, so that is monitored here and the LBA Write bit
  1691                        ;     in the MATCH Flag is cleared when there are no more blocks to transfer.
  1692                        ;
  1693                        ;Also realize that this ISR will be executed every time the DUART generates an interrupt.
  1694                        ; This will happen every 10ms for the Jiffy-Clock timer and for character transmit and receive.
  1695                        ;
  1696 00:FDAA: 3F FF 2A                     BBR3    MATCH,REGEXT01  ;If Bit 3 clear, IDE Write (5/6,7)
  1697                        ;
  1698 00:FDAD: AD 36 FE     LBA_XFER        LDA     IDE_ALT_STATUS  ;Get Status (4)
  1699 00:FDB0: 29 08                        AND     #%00001000      ;Check for DRQ (2)
  1700 00:FDB2: F0 18                        BEQ     IDE_RD_DONE     ;If not active, done, exit (2/3)
  1701                        ;
  1702                        IDE_RD_RBLK
  1703 00:FDB4: AD 38 FE                     LDA     IDE_DATA        ;Read low byte (high byte in latch) (4)
  1704 00:FDB7: 92 F8                        STA     (BIOS_XFERL)    ;Store low byte (5)
  1705 00:FDB9: E6 F8                        INC     BIOS_XFERL      ;Increment pointers (5)
  1706 00:FDBB: D0 02                        BNE     IDE_RD_BLK1     ; (2/3)
  1707 00:FDBD: E6 F9                        INC     BIOS_XFERH      ; (5)
  1708                        IDE_RD_BLK1
  1709 00:FDBF: AD 34 FE                     LDA     IDE_16_READ     ;Read high byte from latch (4)
  1710 00:FDC2: 92 F8                        STA     (BIOS_XFERL)    ;Store high byte (5)
  Sat Apr  4 2026 16:30                                                                                                    Page 35


  1711 00:FDC4: E6 F8                        INC     BIOS_XFERL      ;Increment pointers (5)
  1712 00:FDC6: D0 E5                        BNE     LBA_XFER        ;Loop back to Xfer, saves 3 clock cycles (2/3)
  1713 00:FDC8: E6 F9                        INC     BIOS_XFERH      ; (5)
  1714 00:FDCA: 80 E1                        BRA     LBA_XFER        ;Loop back till no more DRQs (3)
  1715                        ;
  1716 00:FDCC: C6 FA        IDE_RD_DONE     DEC     BIOS_XFERC      ;Decrement Block Count to transfer (5)
  1717 00:FDCE: D0 02                        BNE     IDE_ALL_DONE    ;Branch around Flag Reset until all blocks moved (2/3)
  1718 00:FDD0: 37 FF                        RMB3    MATCH           ;Clear Read Block flag (5)
  1719                        ;
  1720 00:FDD2: AD 36 FE     IDE_ALL_DONE    LDA     IDE_ALT_STATUS  ;Get Alternate Status Register (4)
  1721 00:FDD5: 85 FB                        STA     IDE_STATUS_RAM  ;Save it to RAM location (3)
  1722 00:FDD7: 6C 10 02     REGEXT01        JMP     (VECINSRT0)     ;Exit ISR handler (6)
  1723                        ;
  1724                        IDE_WRIT_BLK                            ;IDE Write a Block of data
  1725 00:FDDA: A5 FA                        LDA     BIOS_XFERC      ;Check Block Count to transfer (3)
  1726 00:FDDC: D0 F4                        BNE     IDE_ALL_DONE    ;Branch to exit if more blocks need to be moved (2/3)
  1727 00:FDDE: 27 FF                        RMB2    MATCH           ;Clear Write Block flag (5)
  1728 00:FDE0: 80 F0                        BRA     IDE_ALL_DONE    ;Branch and finish ISR (3)
  1729                        ;
  1730                        ;END OF BIOS CODE for Pages $F8 through $FD
  1731                        ;**************************************************************************************************
  1732                                .ORG    $FE00   ;Reserved for I/O space - do NOT put code here
  1733                        ;
  1734                        ;There are limited I/O selects for the C02 Pocket V3 hardware as below:
  1735                        ;
  1736                        ; I/O-0 = $FE00-$FE0F  NXP SC28L92 DUART (16 bytes)
  1737                        ; I/O-1 = $FE10-$FE1F  Maxim DS1318 Binary RTC (16 bytes)
  1738                        ; I/O-2 = $FE20-$FE2F  MicroDrive PATA with 16-bit Data Latch (16 bytes)
  1739                        ; I/O-3 = $FE30-$FE3F  Available for future hardware if needed (16 bits)
  1740                        ;
  1741                        ;**************************************************************************************************
  1742                        ;
  1743                                .ORG    $FE40   ;Reserved space for Soft Vector and I/O initialization data
  1744                        ;
  1745                        ;START OF BIOS DEFAULT VECTOR DATA AND HARDWARE CONFIGURATION DATA
  1746                        ;
  1747                        ;There are 192 bytes of ROM space remaining on page $FE from $FE40 - $FEFF
  1748                        ; 64 bytes of this are copied to page $02 and used for soft vectors/hardware soft configuration.
  1749                        ; 32 bytes are for vectors and 32 bytes are for hardware config. The last 32 bytes are only held
  1750                        ; in ROM and are used for hardware configuration that should not be changed.
  1751                        ;
  1752                        ;The default location for the NMI/BRK/IRQ Vector data is at $0200. They are defined at the top of
  1753                        ; the source file. There are 8 defined vectors and 8 vector inserts, all are free for base config.
  1754                        ;
  1755                        ;The default location for the hardware configuration data is at $0220. It is a freeform table which
  1756                        ; is copied from ROM to page $02. The allocated size for the hardware config table is 32 bytes.
  1757                        ;
  1758                        VEC_TABLE      ;Vector table data for default ROM handlers
  1759                        ;
  1760 00:FE40: 66 FA                        .DW     NMI_VECTOR      ;NMI Location in ROM
  1761 00:FE42: 92 FB                        .DW     BRKINSTR0       ;BRK Location in ROM
  1762 00:FE44: 00 FB                        .DW     INTERUPT0       ;IRQ Location in ROM
  1763                        ;
  1764 00:FE46: 03 F0                        .DW     M_WARM_MON      ;NMI return handler in ROM
  1765 00:FE48: 03 F0                        .DW     M_WARM_MON      ;BRK return handler in ROM
  1766 00:FE4A: 98 FF                        .DW     IRQ_EXIT0       ;IRQ return handler in ROM
  1767                        ;
  1768 00:FE4C: 00 F0                        .DW     M_COLD_MON      ;Monitor Cold start
  1769 00:FE4E: 03 F0                        .DW     M_WARM_MON      ;Monitor Warm start
  1770                        ;
  1771                        ;Vector Inserts (total of 8)
  1772                        ; These can be used as required. Note that the IDE init routine will use Insert 0 if a valid
  1773                        ; IDE controller is found and successfully initialized.
  Sat Apr  4 2026 16:30                                                                                                    Page 36


  1774                        ; Also, the NMI/BRK/IRQ and the Monitor routines are vectored, so these can also be extended,
  1775                        ; if needed, by using reserved vector locations.
  1776                        ;
  1777 00:FE50: FF FF                        .DW     $FFFF           ;Insert 0 Location (used if IDE is found)
  1778 00:FE52: FF FF                        .DW     $FFFF           ;Insert 1 Location
  1779 00:FE54: FF FF                        .DW     $FFFF           ;Insert 2 Location
  1780 00:FE56: FF FF                        .DW     $FFFF           ;Insert 3 Location
  1781 00:FE58: FF FF                        .DW     $FFFF           ;Insert 4 Location
  1782 00:FE5A: FF FF                        .DW     $FFFF           ;Insert 5 Location
  1783 00:FE5C: FF FF                        .DW     $FFFF           ;Insert 6 Location
  1784 00:FE5E: FF FF                        .DW     $FFFF           ;Insert 7 Location
  1785                        ;
  1786                        ;Configuration Data - The following tables contains the default data used for:
  1787                        ; - Reset of the SC28L92 (RESET_28L92 routine)
  1788                        ; - Init of the SC28L92 (INIT_28L92 routine)
  1789                        ; - Basic details for register definitions are below, consult SC28L92 DataSheet
  1790                        ; - Note: Output Port bits OP0/OP1 must be set for RTS to work on Ports A and B
  1791                        ;
  1792                        ;Mode Register 0 definition
  1793                        ; Bit7          ;Rx Watchdog Control
  1794                        ; Bit6          ;RX-Int(2) Select
  1795                        ; Bit5/4        ;Tx-Int fill level
  1796                        ; Bit3          ;FIFO size
  1797                        ; Bit2          ;Baud Rate Extended II
  1798                        ; Bit1          ;Test 2 (don't use)
  1799                        ; Bit0          ;Baud Rate Extended I
  1800                        ;
  1801                        ;Mode Register 1 definition
  1802                        ; Bit7          ;RxRTS Control - 1 = Yes
  1803                        ; Bit6          ;RX-Int(1) Select
  1804                        ; Bit5          ;Error Mode - 0 = Character
  1805                        ; Bit4/3        ;Parity Mode - 10 = No Parity
  1806                        ; Bit2          ;Parity Type - 0 = Even (doesn't matter)
  1807                        ; Bit1/0        ;Bits Per Character - 11 = 8
  1808                        ;
  1809                        ;Mode Register 2 Definition
  1810                        ; Bit7/6        ;Channel Mode   - 00 = Normal
  1811                        ; Bit5          ;TxRTS Control - 0 = Yes
  1812                        ; Bit4          ;TxCTS Enable - 1 = Yes
  1813                        ; Bit3-0        ;Stop Bits - 0111 = 1 Stop Bit
  1814                        ;
  1815                        ;Baud Rate Clock Definition (Extended Mode I)
  1816                        ; Upper 4 bits = Receive Baud Rate
  1817                        ; Lower 4 bits = Transmit Baud Rate
  1818                        ; for 115.2K setting is %11001100
  1819                        ; Also set ACR Bit7 = 1 for extended rates (115.2K)
  1820                        ;
  1821                        ;Command Register Definition
  1822                        ; Bit7-4        ;Special commands
  1823                        ; Bit3          ;Disable Transmit
  1824                        ; Bit2          ;Enable Transmit
  1825                        ; Bit1          ;Disable Receive
  1826                        ; Bit0          ;Enable Receive
  1827                        ;
  1828                        ;Aux Control Register Definition
  1829                        ; Bit7          ;BRG Set Select - 1 = Extended
  1830                        ; Bit6-5-4      ;Counter/Timer operating mode 110 = Counter mode from XTAL
  1831                        ; Bit3-2-1-0    ;Enable IP3-2-1-0 Change Of State (COS) IRQ
  1832                        ;
  1833                        ;Interrupt Mask Register Definition
  1834                        ; Bit7          ;Input Change Interrupt 1 = On
  1835                        ; Bit6          ;Change Break B Interrupt 1 = On
  1836                        ; Bit5          ;RxRDY B Interrupt 1 = On
  Sat Apr  4 2026 16:30                                                                                                    Page 37


  1837                        ; Bit4          ;TxRDY B Interrupt 1 = On
  1838                        ; Bit3          ;Counter Ready Interrupt 1 = On
  1839                        ; Bit2          ;Change Break A Interrupt 1 = On
  1840                        ; Bit1          ;RxRDY A Interrupt 1 = On
  1841                        ; Bit0          ;TxRDY A Interrupt 1 = On
  1842                        ;
  1843                        CFG_TABLE       ;Configuration table for hardware devices
  1844                        ;
  1845                        ;Data commands are sent in reverse order from list. This list is the default initialization for
  1846                        ; the DUART as configured for use as a Console connected to either ExtraPutty(WIN) or Serial(OSX)
  1847                        ; The data here is copied to page $02 and is used to configure the DUART during boot up. The soft
  1848                        ; data can be changed and the core INIT_28L92 routine can be called to reconfigure the DUART.
  1849                        ; NOTE: the register offset data is not kept in soft config memory as the initialization
  1850                        ; sequence should not be changed!
  1851                        ;
  1852                        ; Both serial ports are configured at startup!
  1853                        ; - Port A is used as the console.
  1854                        ; - Port B is in idle mode or used for Reader/Punch (DOS/65).
  1855                        ;
  1856                        INIT_DUART       ;Start of DUART Initialization Data
  1857 00:FE60: 03                           .DB     %00000011       ;Enable OP0/1 for RTS control Port A/B
  1858 00:FE61: 0A                           .DB     %00001010       ;Disable Receiver/Disable Transmitter B
  1859 00:FE62: 09                           .DB     %00001001       ;Enable Receiver/Disable Transmitter A
  1860 00:FE63: 0F                           .DB     %00001111       ;Interrupt Mask Register setup
  1861 00:FE64: E0                           .DB     %11100000       ;Aux Register setup for Counter/Timer
  1862 00:FE65: 48                           .DB     %01001000       ;Counter/Timer Upper Preset
  1863 00:FE66: 00                           .DB     %00000000       ;Counter/Timer Lower Preset
  1864 00:FE67: CC                           .DB     %11001100       ;Baud Rate clock for Rcv/Xmt - 115.2K B
  1865 00:FE68: CC                           .DB     %11001100       ;Baud Rate clock for Rcv/Xmt - 115.2K A
  1866 00:FE69: 30                           .DB     %00110000       ;Reset Transmitter B
  1867 00:FE6A: 20                           .DB     %00100000       ;Reset Receiver B
  1868 00:FE6B: 30                           .DB     %00110000       ;Reset Transmitter A
  1869 00:FE6C: 20                           .DB     %00100000       ;Reset Receiver A
  1870 00:FE6D: 00                           .DB     %00000000       ;Interrupt Mask Register setup
  1871 00:FE6E: F0                           .DB     %11110000       ;Command Register A - disable Power Down
  1872                        INIT_DUART_E    ;End of DUART Initialization Data
  1873                        ;
  1874 00:FE6F: FF                           .DB     $FF             ;Spare byte for offset to MR data
  1875                        ;
  1876                        ;Mode Register Data is defined separately. Using the loop routine above to send this data to
  1877                        ; the DUART does not work properly. See the description of the problem using Indexed addressing
  1878                        ; to load the DUART registers above. This data is also kept in soft config memory in page $02.
  1879                        ; Note that this data is also in reverse order for loading into MRs!
  1880                        ;
  1881 00:FE70: 17           MR2_DAT_A       .DB     %00010111       ;Mode Register 2 data
  1882 00:FE71: D3           MR1_DAT_A       .DB     %11010011       ;Mode Register 1 Data
  1883 00:FE72: F9           MR0_DAT_A       .DB     %11111001       ;Mode Register 0 Data
  1884                        ;
  1885 00:FE73: 17           MR2_DAT_B       .DB     %00010111       ;Mode Register 2 data
  1886 00:FE74: D3           MR1_DAT_B       .DB     %11010011       ;Mode Register 1 Data
  1887 00:FE75: C1           MR0_DAT_B       .DB     %11000001       ;Mode Register 0 Data
  1888                        ;
  1889                        ;Reserved for additional I/O devices (10 bytes free)
  1890                        ;
  1891 00:FE76: FF FF FF FF                  .DB     $FF,$FF,$FF,$FF,$FF,$FF,$FF,$FF,$FF,$FF
       00:FE7A: FF FF FF FF 
       00:FE7E: FF FF 
  1892                        ;
  1893                        ;Reset DUART Data is listed here. The sequence and commands do not require changes for any reason.
  1894                        ; These are maintained in ROM only. A total of 32 bytes are available for hard configuration data.
  1895                        ; These are the Register Offsets and Reset Data for the DUART.
  1896                        ;
  1897                        UART_RDATA      ;DUART Reset Data for Received Break (ExtraPutty/Serial Break)
  Sat Apr  4 2026 16:30                                                                                                    Page 38


  1898 00:FE80: 01                           .DB     %00000001       ;Enable Receiver
  1899                        ;
  1900                        UART_RDATA1     ;Smaller list for entry level Reset (RESET_28L92)
  1901 00:FE81: 40                           .DB     %01000000       ;Reset All Errors
  1902 00:FE82: 30                           .DB     %00110000       ;Reset Transmitter
  1903 00:FE83: 20                           .DB     %00100000       ;Reset Receiver
  1904 00:FE84: 50                           .DB     %01010000       ;Reset Break Change Interrupt
  1905                        UART_RDATAE     ;End of DUART Reset Data
  1906                        ;
  1907                        INIT_OFFSET     ;Start of DUART Initialization Register Offsets
  1908 00:FE85: 0E                           .DB     $0E             ;Set Output Port bits
  1909 00:FE86: 0A                           .DB     $0A             ;Command Register B
  1910 00:FE87: 02                           .DB     $02             ;Command Register A
  1911 00:FE88: 05                           .DB     $05             ;Interrupt Mask Register
  1912 00:FE89: 04                           .DB     $04             ;Aux Command Register
  1913 00:FE8A: 06                           .DB     $06             ;Counter Preset Upper
  1914 00:FE8B: 07                           .DB     $07             ;Counter Preset Lower
  1915 00:FE8C: 09                           .DB     $09             ;Baud Clock Register B
  1916 00:FE8D: 01                           .DB     $01             ;Baud Clock Register A
  1917 00:FE8E: 0A                           .DB     $0A             ;Command Register Port B
  1918 00:FE8F: 0A                           .DB     $0A             ;Command Register Port B
  1919 00:FE90: 02                           .DB     $02             ;Command Register Port A
  1920 00:FE91: 02                           .DB     $02             ;Command Register Port A
  1921 00:FE92: 05                           .DB     $05             ;Interrupt Mask Register
  1922 00:FE93: 02                           .DB     $02             ;Command Register Port A
  1923                        INIT_OFFSETE    ;End of DUART Initialization Register Offsets
  1924                        ;
  1925                                .ORG    $FEA0   ;Reserved space for BIOS Text Data
  1926                        ;
  1927                        ; Text Data for the BIOS routines are located here at the end of page $FE.
  1928                        ; - 96 bytes are reserved.
  1929                        ;
  1930                        ; Text Messages for the BIOS used for IDE Boot:
  1931                        ;
  1932                        NO_DRIVE_MSG
  1933 00:FEA0: 4E 6F 20 49          .DB     "No IDE Device!",13,10,0        ;No Drive Found message
       00:FEA4: 44 45 20 44 
       00:FEA8: 65 76 69 63 
       00:FEAC: 65 21 0D 0A 
       00:FEB0: 00 
  1934                        ;
  1935                        DRIVE_MSG
  1936 00:FEB1: 44 72 69 76          .DB     "Drive Error!",13,10,0          ;No drive Found message
       00:FEB5: 65 20 45 72 
       00:FEB9: 72 6F 72 21 
       00:FEBD: 0D 0A 00 
  1937                        ;
  1938                        BPART_MSG
  1939 00:FEC0: 42 61 64 20          .DB     "Bad Partition!",13,10,0        ;Incorrect Partition message
       00:FEC4: 50 61 72 74 
       00:FEC8: 69 74 69 6F 
       00:FECC: 6E 21 0D 0A 
       00:FED0: 00 
  1940                        ;
  1941                        BOOT_INT
  1942 00:FED1: 50 72 65 73          .DB     "Press (ESC) to enter Monitor",13,10,0  ;Interrupt IDE Boot message
       00:FED5: 73 20 28 45 
       00:FED9: 53 43 29 20 
       00:FEDD: 74 6F 20 65 
       00:FEE1: 6E 74 65 72 
       00:FEE5: 20 4D 6F 6E 
       00:FEE9: 69 74 6F 72 
       00:FEED: 0D 0A 00 
  Sat Apr  4 2026 16:30                                                                                                    Page 39


  1943                        ;
  1944                        ; Text Data for the BIOS Benchmark Ouput routine:
  1945                        ;
  1946                        MSG_SEC
  1947 00:FEF0: 20 53 65 63          .DB     " Seconds",13,10,0
       00:FEF4: 6F 6E 64 73 
       00:FEF8: 0D 0A 00 
  1948                        ;
  1949                        ;END OF BIOS VECTOR DATA AND HARDWARE DEFAULT CONFIGURATION DATA
  1950                        ;**************************************************************************************************
  1951                        ;START OF TOP PAGE - DO NOT MOVE FROM THIS ADDRESS!! JUMP Table starts here.
  1952                        ; - BIOS calls are listed below - total of 32, Reserved calls are for future hardware support.
  1953                        ; - "B_" JUMP Tables entries are for BIOS routines, provides isolation between BIOS and other code.
  1954                        ; - BIOS Version 5.x provides bootble support from an IDE controller (IBM/Hitachi Microdrive).
  1955                        ;
  1956                        ; NOTE: All Jump table calls add 3 clock cycles to execution time for each BIOS function.
  1957                        ;
  1958                                .ORG    $FF00   ;BIOS JMP Table, Cold Init and Vector handlers
  1959                        ;
  1960 00:FF00: 4C 40 FD     B_IDE_RESET     JMP     IDE_RESET       ;Call 00 $FF00 (3)
  1961 00:FF03: 4C 61 FD     B_IDE_GET_STAT  JMP     IDE_GET_STATUS  ;Call 01 $FF03 (3)
  1962 00:FF06: 4C 04 FD     B_IDE_IDENTIFY  JMP     IDE_IDENTIFY    ;Call 02 $FF06 (3)
  1963 00:FF09: 4C 5C F8     B_IDE_READ_LBA  JMP     IDE_READ_LBA    ;Call 03 $FF09 (3)
  1964 00:FF0C: 4C 81 F8     B_IDE_WRITE_LBA JMP     IDE_WRITE_LBA   ;Call 04 $FF0C (3)
  1965 00:FF0F: 4C CE F8     B_IDE_SET_LBA   JMP     IDE_SET_LBA     ;Call 05 $FF0F (3)
  1966 00:FF12: 4C C7 F8     B_IDE_SET_ADDR  JMP     IDE_SET_ADDRESS ;Call 06 $FF12 (3)
  1967 00:FF15: 4C 29 FD     B_IDE_SET_CACHE JMP     IDE_SET_CACHE   ;Call 07 $FF15 (3)
  1968                        ;
  1969 00:FF18: 4C 00 F8     B_CHR_STAT      JMP     CHR_STAT        ;Call 09 $FF18 (3)
  1970 00:FF1B: 4C 03 F8     B_CHRIN_NW      JMP     CHRIN_NW        ;Call 10 $FF1B (3)
  1971 00:FF1E: 4C 09 F8     B_CHRIN         JMP     CHRIN           ;Call 11 $FF1E (3)
  1972 00:FF21: 4C 1C F8     B_CHROUT        JMP     CHROUT          ;Call 12 $FF21 (3)
  1973                        ;
  1974 00:FF24: 4C 33 F8     B_CHRIN2        JMP     CHRIN2          ;Call 13 $FF24 (3)
  1975 00:FF27: 4C 45 F8     B_CHROUT2       JMP     CHROUT2         ;Call 14 $FF27 (3)
  1976                        ;
  1977 00:FF2A: 4C AA F9     B_CNT_INIT      JMP     CNT_INIT        ;Call 15 $FF2A (3)
  1978 00:FF2D: 4C B3 F9     B_CNT_STRT      JMP     CNT_STRT        ;Call 16 $FF2D (3)
  1979 00:FF30: 4C B6 F9     B_CNT_STOP      JMP     CNT_STOP        ;Call 17 $FF30 (3)
  1980 00:FF33: 4C B9 F9     B_CNT_DISP      JMP     CNT_DISP        ;Call 18 $FF33 (3)
  1981                        ;
  1982 00:FF36: 4C 82 F9     B_SET_DLY       JMP     SET_DLY         ;Call 19 $FF36 (3)
  1983 00:FF39: 4C 89 F9     B_EXE_MSDLY     JMP     EXE_MSDLY       ;Call 20 $FF39 (3)
  1984 00:FF3C: 4C 95 F9     B_EXE_LGDLY     JMP     EXE_LGDLY       ;Call 21 $FF3C (3)
  1985                        ;
  1986 00:FF3F: 4C 0F FA     B_PROMPTR       JMP     PROMPTR         ;Call 23 $FF3F (3)
  1987                        ;
  1988 00:FF42: 4C 9C FC     B_RTC_INIT      JMP     INIT_RTC        ;Call 08 $FF42 (3)
  1989                        ;
  1990 00:FF45: 4C BA FB     B_PRSTAT        JMP     PRSTAT          ;Call 24 $FF45 (3)
  1991                        ;
  1992 00:FF48: 4C B3 FF     B_RESERVE0      JMP     RESERVE         ;Call 24 $FF48 (3)
  1993                        ;
  1994 00:FF4B: 4C A3 FF     B_INIT_VEC      JMP     INIT_VEC        ;Call 25 $FF4B (3)
  1995 00:FF4E: 4C 9F FF     B_INIT_CFG      JMP     INIT_CFG        ;Call 26 $FF4E (3)
  1996                        ;
  1997 00:FF51: 4C 2A FA     B_INIT_28L92    JMP     INIT_28L92      ;Call 27 $FF51 (3)
  1998 00:FF54: 4C 57 FA     B_RESET_28L92   JMP     RESET_28L92     ;Call 28 $FF54 (3)
  1999                        ;
  2000 00:FF57: 4C 66 FA     B_PANIC         JMP     NMI_VECTOR      ;Call 29 $FF57 (3)
  2001 00:FF5A: 4C 0E F9     B_IDE_BOOT      JMP     IDE_BOOT        ;Call 30 $FF5A (3)
  2002                        ;
  2003                        B_COLDSTRT                              ;Call 31 $FF5D
  Sat Apr  4 2026 16:30                                                                                                    Page 40


  2004 00:FF5D: 78                           SEI                     ;Disable Interrupts (safety) (2)
  2005 00:FF5E: D8                           CLD                     ;Clear decimal mode (safety) (2)
  2006 00:FF5F: A2 00                        LDX     #$00            ;Index for length of page (256 bytes) (2)
  2007 00:FF61: 74 00        PAGE0_LP        STZ     $00,X           ;Clear Page Zero (4)
  2008 00:FF63: CA                           DEX                     ;Decrement index (2)
  2009 00:FF64: D0 FB                        BNE     PAGE0_LP        ;Loop back till done (2/3)
  2010 00:FF66: CA                           DEX                     ;LDX #$FF ;-) (2)
  2011 00:FF67: 9A                           TXS                     ;Set Stack Pointer (2)
  2012                        ;
  2013 00:FF68: 20 9C FF                     JSR     INIT_PG02       ;Xfer default Vectors/HW Config to Page $02 (6)
  2014 00:FF6B: 20 23 FA                     JSR     INIT_IO         ;Init I/O - DUART (Console/Timer) (6)
  2015                        ;
  2016                        ; Send BIOS init msg to console - note: X Reg is zero on return from INIT_IO
  2017                        ;
  2018 00:FF6E: BD D0 FF     BMSG_LP         LDA     BIOS_MSG,X      ;Get BIOS init msg (4)
  2019 00:FF71: F0 06                        BEQ     CHECK_IO        ;If zero, msg done, Test for extra I/O (2/3)
  2020 00:FF73: 20 1C F8                     JSR     CHROUT          ;Send to console (6)
  2021 00:FF76: E8                           INX                     ;Increment Index (2)
  2022 00:FF77: 80 F5                        BRA     BMSG_LP         ;Loop back until done (3)
  2023                        CHECK_IO
  2024 00:FF79: 20 83 FC                     JSR     DETECT_RTC      ;Detect and Init RTC (6)
  2025 00:FF7C: 20 C1 FC                     JSR     DETECT_IDE      ;Detect and Init IDE (6)
  2026 00:FF7F: 20 B3 FF                     JSR     RESERVE         ;Reserve one more Init routine for future use (6)
  2027 00:FF82: 80 D6                        BRA     B_IDE_BOOT      ;Branch to Boot IDE device (3)
  2028                        ;
  2029                        ;This front end for the IRQ vector, saves the CPU registers and determines if a BRK instruction
  2030                        ; was the cause. There are 25 clock cycles to jump to the IRQ vector, and there are 26 clock cycles
  2031                        ; to jump to the BRK vector. Note that there is an additional 18 clock cycles for the IRQ return
  2032                        ; vector, which restores the registers. This creates an overhead of 43 (IRQ) or 44 (BRK) clock
  2033                        ; cycles, plus whatever the ISR or BRK service routines add.
  2034                        ;
  2035                        IRQ_VECTOR                              ;This is the ROM start for the BRK/IRQ handler
  2036 00:FF84: 48                           PHA                     ;Save A Reg (3)
  2037 00:FF85: DA                           PHX                     ;Save X Reg (3)
  2038 00:FF86: 5A                           PHY                     ;Save Y Reg (3)
  2039 00:FF87: BA                           TSX                     ;Get Stack pointer (2)
  2040 00:FF88: BD 04 01                     LDA     $0100+4,X       ;Get Status Register (4)
  2041 00:FF8B: 29 10                        AND     #$10            ;Mask for BRK bit set (2)
  2042 00:FF8D: D0 03                        BNE     DO_BRK          ;If set, handle BRK (2/3)
  2043 00:FF8F: 6C 04 02                     JMP     (IRQVEC0)       ;Jump to Soft vectored IRQ Handler (6)
  2044 00:FF92: 6C 02 02     DO_BRK          JMP     (BRKVEC0)       ;Jump to Soft vectored BRK Handler (6)
  2045                        ;
  2046 00:FF95: 6C 00 02     NMI_ROM         JMP     (NMIVEC0)       ;Jump to Soft vectored NMI handler (6)
  2047                        ;
  2048                        ;This is the standard return for the IRQ/BRK handler routines (18 clock cycles)
  2049                        ;
  2050 00:FF98: 7A           IRQ_EXIT0       PLY                     ;Restore Y Reg (4)
  2051 00:FF99: FA                           PLX                     ;Restore X Reg (4)
  2052 00:FF9A: 68                           PLA                     ;Restore A Reg (4)
  2053 00:FF9B: 40                           RTI                     ;Return from IRQ/BRK routine (6)
  2054                        ;
  2055 00:FF9C: 20 A3 FF     INIT_PG02       JSR     INIT_VEC        ;Init the Soft Vectors first (6)
  2056 00:FF9F: A0 40        INIT_CFG        LDY     #$40            ;Get offset to Config data (2)
  2057 00:FFA1: 80 02                        BRA     DATA_XFER       ;Go move the Config data to page $02 (3)
  2058                        ;
  2059 00:FFA3: A0 20        INIT_VEC        LDY     #$20            ;Get offset to Vector data (2)
  2060 00:FFA5: 78           DATA_XFER       SEI                     ;Disable Interrupts, can be called via JMP table (2)
  2061 00:FFA6: A2 20                        LDX     #$20            ;Set count for 32 bytes (2)
  2062 00:FFA8: B9 3F FE     DATA_XFLP       LDA     VEC_TABLE-1,Y   ;Get ROM table data (4)
  2063 00:FFAB: 99 FF 01                     STA     SOFTVEC-1,Y     ;Store in Soft table location (4)
  2064 00:FFAE: 88                           DEY                     ;Decrement index (2)
  2065 00:FFAF: CA                           DEX                     ;Decrement count (2)
  2066 00:FFB0: D0 F6                        BNE     DATA_XFLP       ;Loop back till done (2/3)
  Sat Apr  4 2026 16:30                                                                                                    Page 41


  2067 00:FFB2: 58                           CLI                     ;Re-enable interrupts (2)
  2068 00:FFB3: 60           RESERVE         RTS                     ;Return to caller (6)
  2069                        ;
  2070                        RTC_MSG
  2071                        ;
  2072                        ;This is a short BIOS message that is displayed when the DS1318 RTC is found
  2073 00:FFB4: 52 54 43 20                  .DB     "RTC found"
       00:FFB8: 66 6F 75 6E 
       00:FFBC: 64 
  2074 00:FFBD: 0D 0A 00                     .DB     $0D,$0A,$00
  2075                        ;
  2076                        IDE_MSG
  2077                        ;
  2078                        ;This is a short BIOS message that is displayed when the IDE controller is found
  2079 00:FFC0: 49 44 45 20                  .DB     "IDE found"
       00:FFC4: 66 6F 75 6E 
       00:FFC8: 64 
  2080 00:FFC9: 0D 0A 00                     .DB     $0D,$0A,$00
  2081                        ;
  2082                        ;The offset data here is used as an index to the Identity Block of Data from the IDE controller
  2083 00:FFCC: 78 79 7A 7B  LBA_OFFSET      .DB     120,121,122,123 ;Offset Data for LBA Size
  2084                        ;
  2085                        ;This BIOS version does not rely on CPU clock frequency for RTC timing. Timing is based on the
  2086                        ; SC28L92 DUART Timer/Counter which has a fixed frequency of 3.6864MHz. Jiffy clock set at 10ms.
  2087                        ; Edit Displayed clock rate at CPU_CLK below as needed if running "other" than 8MHz.
  2088                        ;
  2089                                .ORG    $FFD0   ;Hard coded BIOS message to the top of memory (Monitor uses this)
  2090                        ;
  2091                        ;BIOS init message - sent before jumping to the monitor coldstart vector.
  2092                        ; Changed for BIOS 5.x release, as CPU clock speeds can exceed 10MHz.
  2093                        ; - BIOS version is "5.x" while CPU speed is now two digits.
  2094                        ;
  2095 00:FFD0: 0D 0A        BIOS_MSG        .DB     $0D,$0A         ;CR/LF
  2096 00:FFD2: 43 30 32 42                  .DB     "C02BIOS 5.1"   ;Updated Release Version
       00:FFD6: 49 4F 53 20 
       00:FFDA: 35 2E 31 
  2097 00:FFDD: 0D 0A                        .DB     $0D,$0A         ;CR/LF
  2098 00:FFDF: 57 36 35 43                  .DB     "W65C02@"       ;Display CPU type
       00:FFE3: 30 32 40 
  2099 00:FFE6: 38 4D 48 7A  CPU_CLK         .DB     "8MHz "         ;Displayed CPU Clock frequency
       00:FFEA: 20 
  2100 00:FFEB: 0D 0A                        .DB     $0D,$0A         ;CR/LF
  2101 00:FFED: 30 34 2F 30                  .DB     "04/04/2026"    ;DD/MM/YYYY
       00:FFF1: 34 2F 32 30 
       00:FFF5: 32 36 
  2102 00:FFF7: 0D 0A 00                     .DB     $0D,$0A,$00     ;CR/LF and terminate string
  2103                        ;
  2104                                .ORG    $FFFA   ;W65C02 Vectors:
  2105                        ;
  2106 00:FFFA: 95 FF                        .DW     NMI_ROM         ;NMI
  2107 00:FFFC: 5D FF                        .DW     B_COLDSTRT      ;RESET
  2108 00:FFFE: 84 FF                        .DW     IRQ_VECTOR      ;IRQ/BRK
  2109                                .END


      Lines assembled: 2528
      Errors: 0
